ccollections
defaultdict
p1
(c__builtin__
list
p2
tRp3
S'GTAC'
p4
(lp5
I354
aI398
aI511
aI540
aI831
aI845
aI1401
aI1426
aI1523
aI1609
aI1822
aI2104
aI2605
aI2658
aI2776
aI2851
aI3070
aI3388
aI3496
aI3891
aI4377
aI4561
aI4873
aI5388
aI5396
aI5548
aI5562
aI5670
aI6184
aI6237
aI6656
aI6850
aI7211
aI7792
aI8164
aI8990
aI9356
aI9654
aI9874
asS'CGAG'
p6
(lp7
I316
aI1126
aI1559
aI1566
aI2216
aI2503
aI2632
aI2969
aI3219
aI3335
aI3808
aI3826
aI4125
aI4406
aI4420
aI5164
aI5412
aI5478
aI5511
aI6264
aI6419
aI6884
aI7271
aI8214
aI8325
aI8383
aI8438
aI8513
aI8626
aI8945
aI9028
aI9044
aI9208
aI9411
aI9658
aI9849
asS'GTAA'
p8
(lp9
I496
aI743
aI957
aI1261
aI1367
aI2029
aI2556
aI2615
aI2980
aI3031
aI3090
aI3526
aI3691
aI4236
aI4250
aI4287
aI4841
aI4886
aI4942
aI5131
aI5255
aI5369
aI5489
aI5495
aI5610
aI5829
aI5846
aI6149
aI6965
aI7865
aI8394
aI8664
aI8751
aI8882
aI8913
aI9225
aI9529
aI9897
asS'CGAA'
p10
(lp11
I149
aI519
aI766
aI1475
aI1762
aI1873
aI2264
aI2399
aI2415
aI2627
aI3079
aI3224
aI3419
aI3445
aI3687
aI3858
aI3874
aI3999
aI4435
aI4591
aI4646
aI4862
aI5147
aI5347
aI5913
aI6307
aI6454
aI6696
aI7116
aI7248
aI7299
aI7797
aI8130
aI8228
aI8314
aI8847
aI8900
aI8979
aI9081
aI9212
aI9360
aI9763
aI9868
asS'GTAG'
p12
(lp13
I45
aI608
aI836
aI1063
aI1432
aI1506
aI1907
aI2004
aI2045
aI2363
aI2366
aI2439
aI3087
aI3385
aI3667
aI3929
aI4243
aI4348
aI4413
aI4512
aI4530
aI4728
aI4929
aI5183
aI5186
aI5276
aI5366
aI5527
aI5854
aI6065
aI6865
aI6980
aI6986
aI7202
aI8202
aI8727
aI8770
aI8788
aI9310
aI9321
aI9416
aI9591
aI9704
aI9806
asS'CGAC'
p14
(lp15
I91
aI392
aI885
aI945
aI1089
aI1581
aI1752
aI2091
aI2213
aI2253
aI2483
aI2496
aI2701
aI3332
aI3351
aI3567
aI3981
aI4221
aI4266
aI4502
aI4680
aI5081
aI5712
aI5891
aI6022
aI6145
aI6507
aI6710
aI6731
aI7122
aI8125
aI8435
aI8454
aI8579
aI8936
aI9844
asS'GTAT'
p16
(lp17
I132
aI167
aI234
aI856
aI1188
aI1420
aI1745
aI1843
aI2596
aI2918
aI2986
aI3011
aI3280
aI4030
aI4226
aI4701
aI5053
aI5225
aI5675
aI5909
aI6080
aI6578
aI6634
aI6877
aI6938
aI7179
aI7784
aI7809
aI8112
aI8298
aI8344
aI8400
aI8537
aI9260
aI9338
aI9594
aI9752
aI9775
asS'AGTG'
p18
(lp19
I24
aI213
aI311
aI612
aI838
aI868
aI952
aI1105
aI1450
aI1496
aI1699
aI1721
aI2425
aI2672
aI2939
aI3203
aI3245
aI3363
aI3535
aI4730
aI4851
aI4973
aI5150
aI5448
aI5529
aI5784
aI6008
aI6069
aI6315
aI6354
aI6361
aI6441
aI6446
aI6559
aI6948
aI7167
aI7469
aI7607
aI7862
aI7949
aI8108
aI8210
aI8353
aI8466
aI8515
aI8700
aI8713
aI8729
aI8940
aI9383
aI9402
aI9719
aI9782
aI9810
aI9917
asS'AGTA'
p20
(lp21
I166
aI510
aI830
aI844
aI1431
aI2365
aI2850
aI2985
aI3010
aI3030
aI3086
aI3089
aI3387
aI3495
aI3525
aI3690
aI3928
aI4235
aI4885
aI5130
aI5185
aI5365
aI5368
aI5387
aI5494
aI5547
aI5561
aI5669
aI5908
aI6577
aI6864
aI6937
aI7783
aI7808
aI8201
aI8297
aI8399
aI8787
aI8881
aI8989
aI9224
aI9309
aI9320
aI9590
aI9593
aI9653
asS'AGTC'
p22
(lp23
I55
aI339
aI590
aI1456
aI1537
aI1570
aI1886
aI1978
aI2493
aI2748
aI2923
aI3347
aI3706
aI4297
aI4762
aI5029
aI5188
aI5414
aI5752
aI5817
aI5862
aI6047
aI6563
aI6829
aI7410
aI7500
aI7664
aI8450
aI8488
aI8667
aI8999
aI9065
aI9323
aI9660
aI9788
aI9956
aI9962
asS'AAAA'
p24
(lp25
I115
aI116
aI977
aI1369
aI1793
aI1794
aI1875
aI2645
aI2696
aI2697
aI3045
aI4063
aI4568
aI4877
aI5665
aI5666
aI5919
aI5920
aI6284
aI6285
aI6286
aI7301
aI7302
aI7303
aI7432
aI8132
aI8230
aI8316
aI9740
aI9741
asS'CGAT'
p26
(lp27
I329
aI514
aI547
aI572
aI931
aI1139
aI1168
aI1542
aI1782
aI2126
aI2579
aI3003
aI3141
aI3641
aI3755
aI3794
aI4765
aI4816
aI5005
aI5939
aI6087
aI6241
aI7051
aI7148
aI7155
aI7363
aI7616
aI8721
aI9174
aI9488
aI9983
asS'AAAC'
p28
(lp29
I219
aI734
aI1370
aI1443
aI1554
aI1578
aI1648
aI1992
aI2018
aI2061
aI2342
aI2698
aI2900
aI3046
aI3564
aI3783
aI3835
aI3876
aI4001
aI4132
aI4648
aI4878
aI5831
aI5921
aI6190
aI6858
aI6870
aI7137
aI7304
aI7433
aI7483
aI7697
aI7731
aI7962
aI7966
aI7970
aI7974
aI7978
aI7982
aI7986
aI7990
aI7994
aI7998
aI8002
aI8006
aI8010
aI8014
aI8231
aI9291
aI9546
asS'GAGC'
p30
(lp31
I246
aI274
aI472
aI643
aI1560
aI1643
aI1816
aI1903
aI1911
aI2071
aI2261
aI2298
aI2369
aI2633
aI2764
aI2891
aI2959
aI3216
aI3220
aI3452
aI3670
aI3809
aI3827
aI3996
aI4103
aI4110
aI4322
aI5037
aI5468
aI6961
aI7113
aI7245
aI7692
aI7914
aI7945
aI8215
aI8373
aI8690
aI8746
aI8976
aI9045
aI9209
aI9301
aI9369
aI9412
aI9850
asS'AAAG'
p32
(lp33
I117
aI811
aI959
aI978
aI1679
aI2823
aI2907
aI3175
aI3286
aI3926
aI4289
aI5101
aI5323
aI5667
aI6575
aI6674
aI6698
aI6717
aI7013
aI7118
aI7165
aI7336
aI7439
aI7595
aI7662
aI8295
aI8486
aI8533
aI8587
aI8673
aI8915
aI9063
aI9152
aI9227
aI9717
aI9731
aI9742
aI9759
aI9780
aI9954
asS'AGTT'
p34
(lp35
I343
aI617
aI824
aI1434
aI2047
aI2117
aI3180
aI3190
aI3337
aI3601
aI3768
aI3787
aI3931
aI4422
aI4514
aI4689
aI5114
aI5867
aI5926
aI5969
aI5976
aI6074
aI6224
aI6602
aI6886
aI7204
aI7513
aI7518
aI7702
aI8204
aI8419
aI8440
aI8589
aI9049
aI9312
aI9677
aI9683
aI9712
aI9815
aI9821
asS'AAAT'
p36
(lp37
I82
aI154
aI455
aI762
aI860
aI1289
aI1671
aI1795
aI1853
aI1876
aI2025
aI2111
aI2646
aI2810
aI3194
aI4064
aI4309
aI4507
aI4569
aI4812
aI5033
aI6178
aI6256
aI6287
aI7092
aI7250
aI7564
aI7640
aI7714
aI7817
aI8133
aI8317
aI8734
aI9474
aI9629
asS'GCAC'
p38
(lp39
I427
aI553
aI596
aI1130
aI1245
aI1439
aI1509
aI1806
aI2584
aI3315
aI3646
aI3675
aI4005
aI4218
aI4360
aI4432
aI4638
aI4897
aI4976
aI5104
aI5155
aI5766
aI6053
aI6364
aI6728
aI6817
aI7196
aI7598
aI7832
aI8032
aI8406
aI8636
aI8716
aI9074
aI9095
aI9166
aI9364
aI9794
aI9920
asS'GAAT'
p40
(lp41
I69
aI150
aI286
aI767
aI1488
aI1528
aI2007
aI2155
aI2190
aI2400
aI2416
aI2477
aI2840
aI3152
aI3436
aI3586
aI3859
aI3863
aI4116
aI4128
aI4436
aI5348
aI5382
aI5628
aI5728
aI5744
aI5780
aI6110
aI6127
aI6378
aI6486
aI6551
aI6890
aI8028
aI8518
aI8566
aI8812
aI8901
aI8980
aI9082
aI9667
aI9869
aI9939
asS'TTAG'
p42
(lp43
I22
aI828
aI923
aI1240
aI1436
aI1468
aI1494
aI1697
aI1729
aI1864
aI2385
aI2562
aI2639
aI3533
aI3612
aI3702
aI3766
aI4400
aI4439
aI4834
aI4938
aI4994
aI5112
aI5116
aI5385
aI5741
aI6083
aI6435
aI6692
aI6827
aI6935
aI7265
aI7315
aI7346
aI7591
aI7737
aI7942
aI8137
aI8698
aI8987
aI9059
aI9108
aI9117
aI9281
aI9298
aI9449
aI9817
asS'GGAC'
p44
(lp45
I257
aI851
aI926
aI1218
aI2250
aI2652
aI2834
aI3255
aI3265
aI3406
aI3590
aI3630
aI4090
aI4604
aI4744
aI4837
aI5260
aI5289
aI5836
aI6098
aI6121
aI6247
aI6335
aI6408
aI7550
aI7894
aI7898
aI8874
aI9141
aI9183
aI9533
aI9578
asS'TTAC'
p46
(lp47
I140
aI180
aI619
aI1209
aI1590
aI2075
aI2148
aI2282
aI2453
aI3752
aI4122
aI4516
aI5353
aI5621
aI5721
aI5936
aI6076
aI6544
aI6606
aI6756
aI7183
aI7853
aI7869
aI8059
aI8197
aI8330
aI8347
aI8425
aI8510
aI8783
aI8854
aI9479
aI9861
aI9932
asS'TTAA'
p48
(lp49
I15
aI252
aI806
aI1576
aI1738
aI1767
aI1964
aI2209
aI2490
aI2711
aI3187
aI3192
aI3302
aI3342
aI3603
aI3660
aI4053
aI4367
aI4428
aI4566
aI4657
aI5143
aI5203
aI5264
aI5342
aI5810
aI6203
aI6209
aI6526
aI6856
aI7057
aI7077
aI7082
aI7090
aI7562
aI7729
aI8063
aI8089
aI8172
aI8445
aI8585
aI8671
aI9388
aI9496
aI9778
asS'GAAC'
p50
(lp51
I106
aI1476
aI1763
aI1870
aI1922
aI2219
aI2265
aI2388
aI2459
aI2792
aI3080
aI3135
aI3327
aI3420
aI4137
aI4142
aI4147
aI4152
aI4157
aI4162
aI4167
aI4172
aI4177
aI4182
aI4187
aI4192
aI4197
aI4758
aI4772
aI4863
aI6308
aI6721
aI7372
aI7382
aI7585
aI7798
aI8275
aI8430
aI8777
aI8954
aI9421
aI9699
aI9764
asS'GAAA'
p52
(lp53
I454
aI1553
aI1792
aI1874
aI2017
aI2695
aI2899
aI3285
aI3875
aI4000
aI4062
aI4647
aI5918
aI6177
aI6574
aI6697
aI6869
aI7117
aI7136
aI7249
aI7300
aI7594
aI7639
aI7713
aI8131
aI8229
aI8315
aI8733
aI9062
aI9290
aI9473
aI9545
aI9716
asS'GAAG'
p54
(lp55
I66
aI189
aI520
aI1053
aI1103
aI1800
aI2628
aI2952
aI3028
aI3225
aI3446
aI3680
aI3688
aI4592
aI5148
aI5296
aI5461
aI5906
aI5914
aI6330
aI6359
aI6428
aI6455
aI6491
aI6600
aI6835
aI6919
aI7110
aI7379
aI7605
aI7764
aI7877
aI8366
aI8545
aI8575
aI8848
aI8879
aI8973
aI9213
aI9361
aI9400
aI9681
aI9710
asS'TTAT'
p56
(lp57
I171
aI358
aI361
aI364
aI439
aI535
aI757
aI995
aI1379
aI1382
aI1758
aI1968
aI2119
aI2304
aI2623
aI3237
aI3339
aI3801
aI4272
aI4327
aI4798
aI5407
aI5692
aI5747
aI6092
aI6113
aI6842
aI6845
aI7321
aI7359
aI7390
aI7454
aI7487
aI7493
aI7646
aI7747
aI7826
aI8099
aI8206
aI8442
aI8765
aI8842
aI8925
aI9295
aI9518
aI9615
asS'GCTG'
p58
(lp59
I224
aI1348
aI1613
aI1654
aI1900
aI2300
aI3509
aI3513
aI4027
aI4097
aI4343
aI4708
aI5897
aI6983
aI7650
aI8480
aI9024
aI9071
aI9433
aI9599
aI9887
aI9892
asS'GCTC'
p60
(lp61
I48
aI197
aI1502
aI1716
aI2443
aI2520
aI2537
aI2740
aI2885
aI3062
aI3241
aI3744
aI4012
aI4313
aI4448
aI4484
aI4490
aI4984
aI5433
aI5888
aI5991
aI6133
aI6501
aI6701
aI7256
aI8122
aI8160
aI8311
aI8657
aI8692
aI9129
aI9452
asS'GCTA'
p62
(lp63
I474
aI645
aI1265
aI1832
aI1916
aI1989
aI2160
aI2286
aI2548
aI2829
aI2961
aI3109
aI3172
aI3368
aI3626
aI3832
aI3842
aI3905
aI3943
aI4753
aI4782
aI5093
aI5470
aI5633
aI5707
aI5733
aI5995
aI6196
aI6556
aI6781
aI6951
aI6970
aI7225
aI7396
aI7442
aI7462
aI8043
aI8292
aI8375
aI8471
aI9122
aI9468
aI9839
aI9852
asS'ATAA'
p64
(lp65
I10
aI152
aI549
aI809
aI858
aI1013
aI1145
aI1534
aI1826
aI2402
aI2643
aI2905
aI2920
aI3200
aI3305
aI3557
aI3617
aI3870
aI4066
aI4130
aI4307
aI4686
aI4905
aI5121
aI5515
aI6388
aI7011
aI7046
aI7437
aI7774
aI7819
aI8101
aI8416
aI8527
aI8801
aI9520
aI9627
aI9985
asS'ATAC'
p66
(lp67
I121
aI322
aI384
aI516
aI632
aI1135
aI1352
aI1544
aI1703
aI2128
aI2405
aI3727
aI3881
aI3974
aI4037
aI4334
aI4576
aI4800
aI4808
aI5409
aI5687
aI5813
aI6180
aI6212
aI6650
aI7157
aI7308
aI7671
aI7716
aI8300
aI8602
aI8754
aI8919
asS'CCAT'
p68
(lp69
I270
aI280
aI410
aI564
aI873
aI1164
aI1196
aI1446
aI2751
aI2903
aI3145
aI3158
aI3198
aI3718
aI3879
aI4542
aI4550
aI4624
aI4903
aI5158
aI5330
aI5423
aI5685
aI5956
aI6230
aI6392
aI6518
aI6588
aI7458
aI7581
aI7669
aI7901
aI8236
aI8582
aI8709
aI9201
aI9966
asS'ATAG'
p70
(lp71
I1016
aI1448
aI1797
aI2157
aI2842
aI2948
aI2983
aI3055
aI3168
aI3371
aI3574
aI4329
aI4612
aI4741
aI4908
aI4971
aI4988
aI5055
aI5457
aI5492
aI5630
aI5638
aI5730
aI5782
aI5860
aI6220
aI6278
aI6439
aI6553
aI6862
aI7222
aI8208
aI8362
aI8397
aI8474
aI8687
aI8711
aI8723
aI9340
asS'GCTT'
p72
(lp73
I250
aI276
aI804
aI1207
aI1413
aI1636
aI1857
aI2073
aI2560
aI2589
aI2621
aI2637
aI2709
aI3235
aI3397
aI3471
aI3516
aI3763
aI3986
aI4324
aI4585
aI4820
aI6030
aI6368
aI6626
aI6662
aI6680
aI6931
aI7098
aI7356
aI7740
aI8217
aI8696
aI9115
aI9253
asS'CCAA'
p74
(lp75
I217
aI302
aI599
aI898
aI1646
aI1669
aI2109
aI2222
aI2667
aI2779
aI2808
aI3258
aI3598
aI3781
aI3867
aI3914
aI3924
aI3968
aI4458
aI4464
aI4683
aI4824
aI4914
aI5099
aI5537
aI5791
aI5839
aI6005
aI6056
aI6282
aI6672
aI7481
aI7676
aI7681
aI7695
aI9150
aI9674
aI9695
aI9757
aI9797
aI9924
aI9945
aI9952
asS'CCAC'
p76
(lp77
I30
aI638
aI739
aI968
aI1110
aI1386
aI1593
aI2345
aI2529
aI2864
aI3293
aI3607
aI3812
aI3991
aI4714
aI5073
aI5176
aI5756
aI5805
aI5876
aI6300
aI6566
aI6707
aI6713
aI6944
aI7040
aI7071
aI7628
aI8019
aI8260
aI8265
aI9326
aI9829
asS'TGTG'
p78
(lp79
I568
aI1158
aI1171
aI1374
aI1452
aI1520
aI1604
aI1788
aI1860
aI2463
aI2759
aI2874
aI3252
aI3365
aI3457
aI3504
aI3506
aI3918
aI3959
aI4275
aI4345
aI4357
aI4374
aI4535
aI4572
aI6095
aI6153
aI6356
aI6521
aI6581
aI6668
aI7547
aI8079
aI8149
aI8281
aI8468
aI8570
aI8572
aI8932
aI9160
aI9162
aI9248
aI9353
aI9404
aI9569
aI9747
aI9889
aI9894
asS'ATAT'
p80
(lp81
I201
aI366
aI368
aI370
aI372
aI374
aI376
aI378
aI380
aI382
aI769
aI818
aI1198
aI1200
aI1297
aI1323
aI1587
aI1673
aI1835
aI1947
aI1949
aI2192
aI3160
aI3321
aI3438
aI3579
aI4228
aI4788
aI4920
aI5041
aI5171
aI5332
aI5350
aI6026
aI6590
aI6775
aI6924
aI7031
aI7094
aI7171
aI7173
aI7618
aI8414
aI8797
aI8799
aI9187
aI9608
aI9910
asS'CCAG'
p82
(lp83
I53
aI842
aI878
aI986
aI1391
aI1429
aI1976
aI2095
aI2151
aI2258
aI2430
aI3049
aI3760
aI4015
aI4207
aI4385
aI4469
aI4695
aI4967
aI5360
aI5545
aI5624
aI5724
aI6040
aI6260
aI6405
aI6547
aI6623
aI7128
aI7700
aI8491
aI8678
aI9348
aI9574
aI9904
asS'TAAG'
p84
(lp85
I253
aI529
aI550
aI783
aI1262
aI1535
aI2162
aI2491
aI2557
aI2616
aI2921
aI2963
aI3091
aI3188
aI3201
aI4054
aI4368
aI4429
aI4687
aI4755
aI4883
aI5204
aI5256
aI5343
aI5472
aI5611
aI5735
aI6966
aI7331
aI7353
aI7511
aI7524
aI7820
aI8064
aI8090
aI8173
aI8377
aI8417
aI8598
aI8665
aI8883
aI9530
aI9884
aI9898
aI9915
aI9986
asS'CGTG'
p86
(lp87
I395
aI401
aI466
aI1360
aI1602
aI1684
aI2078
aI2243
aI2316
aI2337
aI2435
aI2474
aI2661
aI2715
aI2878
aI2930
aI3025
aI3250
aI3455
aI3636
aI4281
aI4526
aI4617
aI4750
aI5240
aI5284
aI5338
aI5697
aI5825
aI5851
aI6193
aI6326
aI6536
aI7193
aI7541
aI8084
aI8243
aI8612
aI8653
aI9237
aI9995
asS'TAAC'
p88
(lp89
I16
aI497
aI777
aI1146
aI1251
aI1768
aI2210
aI2412
aI2550
aI2712
aI3022
aI3306
aI3343
aI3527
aI3604
aI3618
aI3661
aI3692
aI3871
aI3907
aI4067
aI4237
aI4658
aI4842
aI4943
aI5122
aI5144
aI5370
aI5496
aI5516
aI5602
aI6204
aI6296
aI6389
aI7058
aI7078
aI7083
aI7464
aI7775
aI7925
aI8184
aI8446
aI9497
aI9841
asS'TAAA'
p90
(lp91
I153
aI810
aI859
aI958
aI1368
aI1577
aI1852
aI1991
aI2060
aI2644
aI2906
aI3174
aI3193
aI3834
aI4131
aI4288
aI4308
aI4506
aI4567
aI5830
aI6857
aI7012
aI7091
aI7438
aI7563
aI7661
aI7730
aI7961
aI8294
aI8586
aI8672
aI8914
aI9226
aI9628
aI9779
asS'TGTC'
p92
(lp93
I442
aI1326
aI1332
aI1710
aI1847
aI1973
aI2056
aI2245
aI2731
aI2754
aI2819
aI2880
aI3247
aI3474
aI3638
aI3654
aI4394
aI5015
aI5046
aI5680
aI6927
aI7276
aI7687
aI7813
aI8081
aI8220
aI9179
asS'TGTA'
p94
(lp95
I397
aI855
aI1260
aI1400
aI1522
aI2028
aI2044
aI2362
aI2595
aI2614
aI2775
aI3279
aI3384
aI4029
aI4347
aI4376
aI4560
aI4727
aI5254
aI5853
aI6633
aI6985
aI7864
aI8663
aI8769
aI8912
aI9337
aI9355
aI9873
aI9896
asS'TCTT'
p96
(lp97
I145
aI262
aI431
aI437
aI772
aI1292
aI1465
aI1618
aI2207
aI2279
aI2293
aI2310
aI2539
aI2772
aI2871
aI3148
aI3550
aI4020
aI4365
aI4796
aI4934
aI5017
aI5405
aI6745
aI6900
aI7387
aI7426
aI8501
aI8669
aI8819
aI8862
aI9067
aI9538
asS'CTCT'
p98
(lp99
I261
aI430
aI791
aI1248
aI1308
aI1397
aI1717
aI1809
aI1811
aI2011
aI2309
aI2444
aI2538
aI4557
aI5085
aI5249
aI5356
aI5590
aI5945
aI5964
aI6134
aI6215
aI6804
aI6894
aI7257
aI7259
aI7508
aI7658
aI7801
aI7890
aI8278
aI8333
aI8335
aI8500
aI8861
aI9003
aI9130
aI9394
aI9453
aI9537
aI9620
asS'ACTA'
p100
(lp101
I970
aI1096
aI1278
aI1770
aI2347
aI2856
aI2991
aI3498
aI3971
aI4039
aI4504
aI4961
aI4978
aI5291
aI5316
aI5445
aI5584
aI6310
aI6568
aI6658
aI6723
aI6758
aI6973
aI7060
aI7085
aI7159
aI7416
aI7552
aI7805
aI8224
aI8596
aI8907
aI8921
aI9882
asS'TAAT'
p102
(lp103
I11
aI744
aI807
aI1014
aI1739
aI1827
aI1918
aI1965
aI2030
aI2349
aI2403
aI2981
aI3032
aI3166
aI3303
aI3500
aI3558
aI4251
aI4887
aI4906
aI5132
aI5265
aI5490
aI5593
aI5811
aI5847
aI6150
aI6210
aI6218
aI6527
aI6783
aI6975
aI7047
aI7087
aI7866
aI8102
aI8395
aI8528
aI8752
aI8802
aI9389
aI9521
aI9854
asS'AACG'
p104
(lp105
I601
aI900
aI1579
aI1750
aI1871
aI1993
aI2019
aI2211
aI2389
aI2413
aI2524
aI2699
aI2713
aI3023
aI3328
aI3565
aI3662
aI3693
aI3836
aI3872
aI4002
aI4133
aI4138
aI4143
aI4148
aI4153
aI4158
aI4163
aI4168
aI4173
aI4178
aI4183
aI4188
aI4193
aI4198
aI4843
aI5145
aI5192
aI5371
aI6058
aI6191
aI6616
aI7138
aI8015
aI8185
aI8232
aI8431
aI9799
aI9842
aI9947
asS'TCTG'
p106
(lp107
I792
aI797
aI1204
aI1398
aI1416
aI1812
aI1879
aI1888
aI1971
aI1980
aI2012
aI2085
aI2186
aI2329
aI2445
aI3132
aI3400
aI3491
aI3652
aI3656
aI3949
aI4558
aI4769
aI5678
aI5965
aI5999
aI6480
aI6666
aI6805
aI6895
aI7709
aI7891
aI8025
aI8279
aI8320
aI8871
aI8966
aI9177
aI9335
aI9395
aI9454
aI9621
aI9771
asS'CTCA'
p108
(lp109
I95
aI198
aI210
aI865
aI974
aI1093
aI1255
aI2521
aI2574
aI2886
aI3242
aI3410
aI3465
aI3480
aI3745
aI3897
aI3910
aI4259
aI4314
aI4449
aI4778
aI4946
aI4985
aI5871
aI6463
aI6502
aI6912
aI7003
aI7144
aI7217
aI8143
aI8593
aI8658
aI9018
aI9098
aI9169
aI9425
aI9442
aI9549
aI9878
aI9959
asS'ACTC'
p110
(lp111
I209
aI429
aI973
aI1247
aI1808
aI2130
aI2255
aI2271
aI2705
aI3000
aI3541
aI3893
aI3909
aI4239
aI4522
aI4945
aI5010
aI5355
aI5714
aI5963
aI6214
aI7374
aI7654
aI7673
aI7800
aI7927
aI8046
aI8166
aI8277
aI8332
aI8718
aI9097
aI9134
aI9168
aI9408
aI9548
asS'TCTC'
p112
(lp113
I790
aI864
aI1040
aI1307
aI1396
aI1539
aI1810
aI2010
aI2308
aI2797
aI3155
aI3479
aI3804
aI4048
aI4777
aI4791
aI5248
aI5335
aI5357
aI5416
aI5682
aI5870
aI5946
aI6233
aI6396
aI6530
aI6803
aI6893
aI7143
aI7258
aI7260
aI7507
aI7621
aI7843
aI7889
aI8334
aI8336
aI8592
aI9147
aI9393
aI9942
aI9958
asS'TATG'
p114
(lp115
I202
aI235
aI440
aI536
aI819
aI1298
aI1324
aI1421
aI1836
aI2987
aI3111
aI3238
aI3580
aI4273
aI4702
aI4921
aI5095
aI5172
aI5226
aI5252
aI6027
aI6093
aI6579
aI6846
aI6925
aI7095
aI7391
aI7418
aI7488
aI7647
aI9188
aI9470
aI9595
asS'TCTA'
p116
(lp117
I775
aI1249
aI1309
aI1718
aI1952
aI2058
aI2232
aI4498
aI4609
aI4738
aI5048
aI5086
aI5233
aI5250
aI5591
aI5864
aI6135
aI6216
aI6593
aI7329
aI7509
aI7659
aI7721
aI7780
aI7802
aI7959
aI8182
aI9004
aI9131
aI9913
asS'CTCG'
p118
(lp119
I49
aI450
aI1041
aI1503
aI1540
aI2272
aI2354
aI2706
aI2741
aI3001
aI3542
aI4049
aI4087
aI4240
aI4600
aI4792
aI5216
aI5336
aI5509
aI5889
aI5992
aI6234
aI6397
aI6498
aI7375
aI7844
aI7928
aI8050
aI8123
aI8161
aI8312
aI8693
aI8719
aI9206
aI9409
aI9981
asS'AAGG'
p120
(lp121
I254
aI530
aI784
aI812
aI960
aI1054
aI1315
aI2224
aI2953
aI3074
aI3176
aI3287
aI3681
aI4055
aI5221
aI5257
aI5324
aI5462
aI5915
aI6331
aI6675
aI6718
aI6836
aI6967
aI6996
aI7014
aI7878
aI8065
aI8091
aI8157
aI8367
aI8534
aI8620
aI9153
aI9531
aI9743
aI9899
aI9987
asS'TAGT'
p122
(lp123
I23
aI509
aI829
aI837
aI951
aI1433
aI1449
aI1495
aI1698
aI1720
aI2046
aI2364
aI2984
aI3088
aI3386
aI3534
aI3767
aI3930
aI4513
aI4729
aI4972
aI5113
aI5184
aI5187
aI5367
aI5386
aI5447
aI5493
aI5528
aI5783
aI5861
aI5866
aI6440
aI6558
aI6828
aI6863
aI6936
aI7203
aI7782
aI7807
aI8203
aI8209
aI8398
aI8699
aI8712
aI8728
aI8988
aI9311
aI9319
aI9322
aI9592
asS'CGGA'
p124
(lp125
I40
aI161
aI452
aI626
aI641
aI935
aI990
aI1150
aI1526
aI1934
aI2790
aI2833
aI2975
aI3230
aI3318
aI3360
aI3405
aI3546
aI4089
aI4135
aI4140
aI4145
aI4150
aI4155
aI4160
aI4165
aI4170
aI4175
aI4180
aI4185
aI4190
aI4195
aI4232
aI4848
aI5380
aI5484
aI5835
aI6125
aI6598
aI6609
aI6810
aI6833
aI7043
aI7377
aI7603
aI7690
aI7762
aI7859
aI7897
aI7912
aI8116
aI8389
aI8463
aI8543
aI8744
aI8810
aI8877
aI8993
aI9140
aI9182
aI9663
asS'CGGG'
p126
(lp127
I242
aI982
aI1076
aI1100
aI1303
aI1516
aI1550
aI2068
aI2456
aI2545
aI2655
aI2687
aI2743
aI2767
aI3067
aI3268
aI3432
aI3664
aI4200
aI4301
aI4478
aI4602
aI5107
aI5500
aI5523
aI5903
aI6013
aI6163
aI6174
aI6341
aI6399
aI6467
aI6788
aI7018
aI7064
aI7230
aI7237
aI7369
aI8187
aI8647
aI9264
aI9329
aI9514
asS'ACGT'
p128
(lp129
I123
aI394
aI400
aI465
aI555
aI741
aI901
aI1546
aI1683
aI1994
aI2020
aI2077
aI2176
aI2390
aI2434
aI2525
aI2660
aI2714
aI3024
aI3694
aI3814
aI3976
aI4362
aI4563
aI4616
aI4839
aI4899
aI5193
aI5390
aI5689
aI5807
aI6078
aI6147
aI6182
aI6192
aI6268
aI6617
aI6761
aI7139
aI7200
aI8034
aI8242
aI9236
aI9378
aI9552
asS'AAGA'
p130
(lp131
I67
aI118
aI190
aI521
aI1680
aI1801
aI2167
aI2669
aI2824
aI2908
aI3226
aI3447
aI4369
aI4756
aI5022
aI5205
aI5313
aI5555
aI5736
aI6158
aI6251
aI6426
aI7111
aI7134
aI7380
aI7821
aI8174
aI8546
aI8599
aI8674
aI8916
aI8974
aI9214
aI9645
aI9697
aI9732
asS'CACT'
p132
(lp133
I428
aI969
aI1095
aI1246
aI1510
aI1573
aI1807
aI1998
aI2324
aI2346
aI2450
aI2530
aI2585
aI2704
aI3676
aI4093
aI4337
aI4397
aI4960
aI4977
aI5583
aI5877
aI6510
aI6567
aI6638
aI6818
aI7725
aI7872
aI8178
aI8223
aI8407
aI8595
aI8660
aI8717
aI9096
aI9167
aI9269
aI9767
asS'GTGA'
p134
(lp135
I312
aI491
aI581
aI815
aI869
aI1045
aI1453
aI1641
aI1700
aI1722
aI2317
aI2426
aI2475
aI2662
aI2760
aI3026
aI3103
aI3774
aI3919
aI4108
aI4282
aI4536
aI4573
aI4852
aI4892
aI5698
aI6108
aI6357
aI6447
aI6484
aI6560
aI6582
aI7168
aI7935
aI7950
aI8516
aI8573
aI8613
aI8684
aI8952
aI9384
aI9405
asS'GTGC'
p136
(lp137
I214
aI569
aI839
aI882
aI953
aI1106
aI1172
aI1285
aI1497
aI1688
aI2198
aI2338
aI2467
aI2673
aI2716
aI2861
aI2875
aI3366
aI3429
aI3507
aI3536
aI3624
aI4025
aI4358
aI4618
aI4751
aI4974
aI5241
aI5281
aI5327
aI5785
aI6009
aI6154
aI6194
aI6316
aI6362
aI6442
aI6537
aI6669
aI6949
aI7194
aI7233
aI7542
aI7608
aI8153
aI8211
aI8244
aI8282
aI8469
aI8714
aI8933
aI8941
aI9238
aI9720
aI9890
aI9918
asS'GTGG'
p138
(lp139
I25
aI76
aI402
aI467
aI613
aI890
aI1159
aI1361
aI1605
aI1685
aI1789
aI2079
aI2436
aI2464
aI2678
aI2931
aI2940
aI3204
aI3253
aI3458
aI4058
aI4276
aI4527
aI4731
aI5151
aI5285
aI5449
aI5826
aI6036
aI6070
aI6096
aI6327
aI6522
aI7240
aI7470
aI7548
aI8109
aI8150
aI8354
aI8654
aI8701
aI8730
aI9163
aI9249
aI9570
aI9748
aI9783
aI9811
asS'ACGA'
p140
(lp141
I315
aI513
aI518
aI1125
aI1474
aI1580
aI1751
aI1872
aI2212
aI2215
aI2252
aI2414
aI2482
aI2700
aI3334
aI3566
aI3754
aI3793
aI3873
aI4124
aI4220
aI4265
aI4434
aI4501
aI5146
aI5163
aI5411
aI5938
aI6709
aI6730
aI7147
aI8227
aI8437
aI8512
aI9843
aI9848
asS'ACGC'
p142
(lp143
I32
aI195
aI602
aI1388
aI1611
aI2106
aI2284
aI2395
aI2407
aI2866
aI3329
aI3353
aI3413
aI3837
aI4003
aI4583
aI4640
aI4895
aI4925
aI5075
aI5319
aI5758
aI6059
aI6186
aI6366
aI6645
aI6652
aI6726
aI7600
aI8016
aI8127
aI8233
aI8302
aI8432
aI8456
aI8856
aI9076
aI9219
aI9800
asS'AAGT'
p144
(lp145
I310
aI1104
aI1536
aI1885
aI2424
aI2492
aI2922
aI3029
aI3189
aI3202
aI3600
aI3689
aI3927
aI4688
aI4884
aI5149
aI5668
aI5907
aI5925
aI6007
aI6353
aI6360
aI6576
aI6601
aI7166
aI7468
aI7512
aI7606
aI7663
aI8107
aI8296
aI8418
aI8487
aI8588
aI8666
aI8880
aI9064
aI9223
aI9401
aI9676
aI9682
aI9711
aI9718
aI9781
aI9916
aI9955
asS'ACGG'
p146
(lp147
I640
aI833
aI887
aI1075
aI1099
aI1525
aI1658
aI2289
aI2455
aI2544
aI2654
aI2832
aI3229
aI3267
aI3317
aI3359
aI3648
aI3663
aI3983
aI4134
aI4139
aI4144
aI4149
aI4154
aI4159
aI4164
aI4169
aI4174
aI4179
aI4184
aI4189
aI4194
aI4199
aI4352
aI4452
aI4716
aI4844
aI5106
aI5372
aI5550
aI5772
aI6466
aI6608
aI7042
aI7063
aI7124
aI7896
aI8186
aI8462
aI8638
aI8876
aI8992
aI9021
aI9328
aI9481
aI9688
aI9948
asS'CGGT'
p148
(lp149
I58
aI74
aI130
aI489
aI503
aI606
aI834
aI888
aI1043
aI1069
aI1186
aI1659
aI1694
aI1743
aI2290
aI2611
aI2676
aI3649
aI3885
aI4082
aI4106
aI4248
aI4353
aI4411
aI4699
aI4717
aI5373
aI5773
aI5985
aI6063
aI6739
aI7504
aI7758
aI8639
aI8749
aI8816
aI8835
aI9304
aI9372
aI9612
aI9804
asS'GGCC'
p150
(lp151
I28
aI86
aI300
aI892
aI939
aI984
aI1078
aI1407
aI1774
aI3289
aI3596
aI3683
aI3953
aI4278
aI4442
aI4454
aI4480
aI4712
aI5502
aI5659
aI6002
aI6038
aI6416
aI6471
aI6955
aI7126
aI7268
aI7626
aI7880
aI8094
aI8505
aI8897
aI9155
aI9572
aI9690
aI9902
aI9950
asS'GGCA'
p152
(lp153
I5
aI79
aI319
aI587
aI595
aI1056
aI1083
aI1129
aI1805
aI2933
aI4076
aI4856
aI5154
aI5552
aI5652
aI5857
aI6044
aI6052
aI6343
aI6816
aI7407
aI7533
aI8068
aI8248
aI8270
aI8411
aI8562
aI8617
aI8629
aI9165
aI9638
aI9737
aI9785
aI9793
aI9907
asS'GTGT'
p154
(lp155
I396
aI1375
aI1451
aI1519
aI1521
aI1603
aI1861
aI1892
aI2244
aI2613
aI2879
aI3246
aI3251
aI3364
aI3456
aI3505
aI3637
aI3960
aI4346
aI4375
aI4534
aI4726
aI5339
aI5530
aI5642
aI5852
aI6355
aI6632
aI6741
aI7275
aI7863
aI8080
aI8085
aI8467
aI8571
aI8931
aI9034
aI9161
aI9352
aI9354
aI9403
aI9746
aI9895
asS'TTCT'
p156
(lp157
I436
aI774
aI796
aI863
aI1039
aI1203
aI1415
aI2084
aI2307
aI2328
aI2771
aI2796
aI3399
aI3948
aI4768
aI4776
aI5232
aI5247
aI5869
aI6395
aI6479
aI6665
aI6744
aI7142
aI7425
aI7708
aI7720
aI7842
aI7888
aI8024
aI8181
aI8591
aI8965
aI9392
aI9770
asS'AGGG'
p158
(lp159
I255
aI648
aI785
aI1018
aI1231
aI1731
aI3075
aI3263
aI4415
aI5166
aI5222
aI5258
aI5278
aI6042
aI6332
aI6676
aI6837
aI6988
aI7555
aI8066
aI8092
aI8621
aI8680
aI8774
aI9030
aI9119
aI9418
aI9430
aI9576
aI9636
aI9900
asS'AGGA'
p160
(lp161
I925
aI1217
aI1268
aI1866
aI1909
aI2153
aI2249
aI2838
aI2889
aI2897
aI2950
aI2954
aI3057
aI3177
aI3208
aI3576
aI3629
aI3845
aI4114
aI4743
aI4836
aI5294
aI5459
aI5463
aI5626
aI5726
aI5916
aI6246
aI6407
aI6549
aI6719
aI6867
aI7953
aI8251
aI8364
aI8368
aI8947
aI8996
aI9342
aI9532
aI9988
asS'TGCT'
p162
(lp163
I1206
aI1347
aI1412
aI1635
aI1653
aI1856
aI2588
aI3061
aI3240
aI3367
aI3396
aI3508
aI3515
aI3625
aI3904
aI4026
aI4096
aI4312
aI4447
aI4752
aI4819
aI5896
aI6029
aI6195
aI6780
aI6950
aI7097
aI7255
aI7461
aI7649
aI8121
aI8470
aI9070
aI9128
aI9891
asS'AGGC'
p164
(lp165
I318
aI938
aI1055
aI1128
aI1773
aI1804
aI2441
aI2827
aI3170
aI3233
aI3288
aI3682
aI4408
aI4441
aI4855
aI4996
aI5856
aI6815
aI6954
aI6968
aI7015
aI7267
aI7879
aI8158
aI8269
aI8616
aI8628
aI9154
aI9906
asS'AATC'
p166
(lp167
I456
aI745
aI763
aI1290
aI1341
aI1489
aI1740
aI1828
aI1877
aI2008
aI2065
aI2350
aI2811
aI3153
aI3195
aI3864
aI4117
aI4317
aI4466
aI4671
aI4813
aI5539
aI5848
aI6257
aI6346
aI6379
aI6528
aI6891
aI7048
aI7678
aI8103
aI8318
aI8519
aI8529
aI8813
aI8981
aI9083
aI9522
aI9630
aI9940
asS'GATT'
p168
(lp169
I405
aI573
aI583
aI992
aI1047
aI1632
aI1736
aI1961
aI2169
aI2580
aI2690
aI2910
aI2943
aI3004
aI3393
aI3750
aI3795
aI4655
aI4766
aI5452
aI5738
aI6088
aI6372
aI6584
aI6840
aI7055
aI7570
aI8118
aI8194
aI8328
aI8357
aI8423
aI8738
aI9279
aI9386
aI9489
aI9493
aI9566
aI9647
aI9990
asS'CCCT'
p170
(lp171
I347
aI448
aI526
aI748
aI780
aI948
aI1009
aI1409
aI1957
aI2041
aI2735
aI2816
aI3037
aI3097
aI3297
aI3375
aI3381
aI3956
aI4070
aI4211
aI4555
aI5198
aI5214
aI5399
aI5616
aI5943
aI5949
aI6734
aI7001
aI7215
aI7588
aI7752
aI7849
aI7882
aI8141
aI8498
aI8859
aI9054
aI9091
aI9157
aI9231
aI9285
asS'GACT'
p172
(lp173
I208
aI852
aI1277
aI1983
aI2254
aI2270
aI2497
aI2990
aI2999
aI3184
aI3568
aI3901
aI4371
aI4503
aI4521
aI4952
aI5009
aI5058
aI5261
aI5290
aI5315
aI5444
aI5713
aI5892
aI5962
aI6336
aI7551
aI7653
aI7823
aI8906
aI9407
asS'AGGT'
p174
(lp175
I43
aI352
aI494
aI531
aI654
aI659
aI664
aI669
aI674
aI679
aI684
aI689
aI694
aI699
aI704
aI709
aI714
aI719
aI724
aI729
aI813
aI880
aI961
aI1283
aI1316
aI1365
aI1393
aI1841
aI2136
aI2225
aI2320
aI2487
aI2505
aI2554
aI2859
aI2971
aI2978
aI3101
aI3273
aI3777
aI4056
aI4285
aI4532
aI4931
aI4940
aI5051
aI5304
aI5325
aI5480
aI5487
aI5640
aI6102
aI6199
aI6421
aI6997
aI7273
aI7632
aI7933
aI7956
aI8306
aI8385
aI8392
aI8535
aI8725
aI8950
aI9350
aI9744
aI9971
asS'TTCG'
p176
(lp177
I128
aI147
aI289
aI558
aI964
aI1116
aI1986
aI2049
aI2139
aI2517
aI2534
aI2928
aI3888
aI4080
aI4587
aI4860
aI4870
aI5063
aI5645
aI5763
aI6290
aI6413
aI6737
aI6747
aI6799
aI7530
aI7539
aI7574
aI7857
aI8642
aI8742
aI8845
aI9042
aI9257
aI9993
asS'AATA'
p178
(lp179
I151
aI768
aI808
aI1015
aI1134
aI1144
aI1322
aI1672
aI1796
aI2156
aI2191
aI2401
aI2404
aI2841
aI2982
aI3054
aI3167
aI3304
aI3437
aI3869
aI4065
aI4129
aI4685
aI4787
aI4907
aI5349
aI5491
aI5629
aI5729
aI5781
aI5812
aI6179
aI6211
aI6219
aI6277
aI6552
aI6649
aI7010
aI7030
aI7093
aI7715
aI7818
aI8396
aI8753
aI9607
aI9626
asS'TTCA'
p180
(lp181
I112
aI462
aI480
aI1035
aI1072
aI1319
aI1484
aI1620
aI1676
aI1928
aI2171
aI2203
aI2591
aI2945
aI3519
aI3561
aI3790
aI4805
aI5019
aI5454
aI5575
aI6374
aI6385
aI7027
aI7429
aI7515
aI8359
aI8794
aI9461
aI9728
aI9974
asS'TTCC'
p182
(lp183
I265
aI278
aI345
aI408
aI623
aI1667
aI1895
aI2033
aI2378
aI2806
aI3442
aI3797
aI3821
aI3988
aI4382
aI4693
aI4822
aI5803
aI5978
aI6169
aI6514
aI6586
aI6682
aI6764
aI7520
aI7921
aI8821
aI8958
aI9037
aI9052
asS'GACA'
p184
(lp185
I192
aI1582
aI1882
aI2448
aI2484
aI2702
aI2835
aI3128
aI3631
aI4091
aI4267
aI4605
aI5024
aI6023
aI6099
aI6248
aI6253
aI6508
aI6613
aI7007
aI7131
aI7477
aI7771
aI8176
aI8483
aI8937
aI9184
aI9216
aI9642
aI9845
asS'GACC'
p186
(lp187
I92
aI230
aI258
aI523
aI871
aI927
aI946
aI1090
aI1219
aI1724
aI1753
aI2092
aI2428
aI3256
aI3407
aI3591
aI3849
aI3966
aI4222
aI4256
aI4681
aI4745
aI5082
aI5429
aI5535
aI5702
aI5837
aI6122
aI6160
aI6228
aI6409
aI6711
aI6732
aI7349
aI7899
aI8580
aI8676
aI8806
aI8890
aI9142
aI9534
aI9579
aI9672
asS'GATG'
p188
(lp189
I103
aI205
aI238
aI628
aI800
aI1022
aI1169
aI1629
aI1783
aI1786
aI1936
aI2567
aI2914
aI2956
aI3059
aI3105
aI3210
aI3213
aI3449
aI4100
aI4817
aI5006
aI5465
aI5557
aI7052
aI7908
aI8253
aI8370
aI8548
aI9344
aI9734
asS'GATA'
p190
(lp191
I9
aI120
aI515
aI548
aI631
aI817
aI1296
aI1351
aI1533
aI1543
aI1702
aI2127
aI2642
aI3320
aI3556
aI3578
aI4575
aI4970
aI5170
aI5514
aI6438
aI7045
aI7156
aI7170
aI7617
aI8601
aI8686
aI8722
aI8918
aI9984
asS'GACG'
p192
(lp193
I314
aI393
aI886
aI1124
aI1473
aI1657
aI1682
aI2214
aI2251
aI2433
aI2481
aI2543
aI2653
aI3228
aI3266
aI3333
aI3352
aI3358
aI3982
aI4264
aI4351
aI4582
aI4615
aI4838
aI4894
aI4924
aI6146
aI6267
aI6644
aI7123
aI7895
aI8126
aI8241
aI8436
aI8455
aI8461
aI8875
aI9235
aI9377
aI9687
asS'GATC'
p194
(lp195
I330
aI932
aI1066
aI1140
aI1152
aI1270
aI2230
aI2332
aI2601
aI2664
aI3041
aI3114
aI3142
aI3461
aI3548
aI3642
aI3756
aI3921
aI4018
aI4388
aI4403
aI4538
aI4957
aI5207
aI5270
aI5940
aI6242
aI6449
aI6898
aI7104
aI7149
aI7364
aI7937
aI8494
aI8826
aI9175
aI9197
aI9559
asS'GCCG'
p196
(lp197
I38
aI390
aI487
aI604
aI893
aI940
aI943
aI1181
aI1301
aI1358
aI1499
aI1514
aI1692
aI1780
aI1913
aI2098
aI2397
aI2501
aI3222
aI3672
aI4246
aI4279
aI4472
aI4481
aI4595
aI4642
aI4665
aI5138
aI5299
aI5521
aI5660
aI5931
aI6011
aI6061
aI6318
aI6321
aI6417
aI6472
aI6882
aI7235
aI7269
aI7292
aI8256
aI8477
aI8506
aI8554
aI8898
aI8943
aI9273
aI9465
aI9486
aI9526
aI9802
asS'AGAC'
p198
(lp199
I191
aI522
aI1276
aI1472
aI1681
aI2432
aI2998
aI3127
aI3227
aI3357
aI3848
aI3900
aI4350
aI4370
aI4614
aI5023
aI5057
aI5314
aI5428
aI5443
aI5701
aI5961
aI6159
aI6252
aI6266
aI6612
aI7006
aI7130
aI7348
aI7822
aI8175
aI8460
aI8675
aI9215
aI9641
asS'ATCT'
p200
(lp201
I144
aI771
aI1291
aI1878
aI1951
aI1970
aI2009
aI2206
aI2231
aI3131
aI3147
aI3154
aI3549
aI3803
aI4019
aI4608
aI4737
aI4790
aI5334
aI5677
aI5998
aI6232
aI6529
aI6592
aI6892
aI6899
aI7386
aI7620
aI7779
aI8319
aI8870
aI9176
aI9912
aI9941
asS'GCCC'
p202
(lp203
I87
aI561
aI896
aI918
aI1108
aI1408
aI1562
aI1818
aI2088
aI2510
aI3036
aI3096
aI3290
aI3374
aI3684
aI3954
aI4210
aI4455
aI4462
aI4475
aI4548
aI4554
aI4628
aI4911
aI5077
aI5237
aI5614
aI5900
aI6003
aI7069
aI7287
aI7881
aI8140
aI8707
aI8858
aI9078
aI9089
aI9111
aI9156
aI9230
aI9284
aI9691
aI9826
asS'GCCA'
p204
(lp205
I29
aI52
aI216
aI269
aI301
aI841
aI877
aI967
aI985
aI1195
aI1390
aI1645
aI2108
aI2863
aI3597
aI3811
aI4713
aI5098
aI5175
aI5329
aI5544
aI5790
aI6039
aI6281
aI6404
aI6622
aI6671
aI6706
aI7039
aI7127
aI7580
aI7627
aI7668
aI7694
aI8018
aI8235
aI8259
aI9347
aI9573
aI9903
aI9951
asS'CCGG'
p206
(lp207
I39
aI488
aI593
aI605
aI625
aI1149
aI1182
aI1302
aI1405
aI1515
aI1693
aI1897
aI1933
aI2099
aI2610
aI2789
aI3066
aI3594
aI3884
aI4247
aI4300
aI4477
aI4630
aI5379
aI5499
aI5522
aI5834
aI5902
aI6012
aI6050
aI6062
aI6124
aI6162
aI6597
aI6832
aI7229
aI7236
aI7503
aI7624
aI8542
aI8809
aI8834
aI9501
aI9791
aI9803
asS'TACT'
p208
(lp209
I0
aI355
aI385
aI476
aI620
aI846
aI972
aI2129
aI3497
aI3892
aI3945
aI4038
aI4517
aI5354
aI5569
aI6213
aI6570
aI6657
aI6757
aI6972
aI7158
aI7309
aI7342
aI7415
aI7444
aI7672
aI7717
aI7804
aI7854
aI8045
aI8060
aI8165
aI8287
aI8331
aI8348
aI8920
aI9124
aI9133
aI9933
asS'CTGC'
p210
(lp211
I36
aI500
aI750
aI1193
aI1205
aI1411
aI1512
aI1652
aI2086
aI2499
aI2587
aI3514
aI3570
aI3852
aI3903
aI4095
aI4339
aI5879
aI5898
aI6273
aI6338
aI7285
aI8967
aI9025
aI9072
aI9093
aI9271
aI9600
aI9622
aI9865
asS'CCGC'
p212
(lp213
I222
aI267
aI326
aI485
aI894
aI941
aI999
aI1500
aI1914
aI2123
aI2380
aI2512
aI2684
aI3673
aI3941
aI4010
aI4473
aI4482
aI4488
aI4493
aI4596
aI4643
aI5091
aI5300
aI5431
aI5436
aI5519
aI5542
aI5661
aI5705
aI6171
aI6319
aI6473
aI6685
aI6704
aI6767
aI7190
aI7290
aI7837
aI8257
aI8478
aI8605
aI9014
aI9113
aI9137
aI9466
aI9582
aI9833
asS'CAGT'
p214
(lp215
I54
aI212
aI342
aI589
aI823
aI843
aI867
aI1430
aI1977
aI2116
aI2849
aI2938
aI3244
aI3346
aI3786
aI4761
aI5028
aI5364
aI5546
aI5751
aI5816
aI6046
aI6445
aI6947
aI7409
aI7499
aI7517
aI7701
aI7948
aI8200
aI8449
aI8786
aI8939
aI9048
aI9308
aI9382
aI9652
aI9787
aI9961
asS'CCGA'
p216
(lp217
I90
aI391
aI546
aI930
aI944
aI1088
aI1138
aI1558
aI1565
aI1781
aI2090
aI2398
aI2502
aI3223
aI3350
aI3444
aI3686
aI3807
aI3825
aI3980
aI4679
aI5004
aI5080
aI6240
aI6306
aI6418
aI6883
aI7154
aI7270
aI7796
aI8453
aI8899
aI8944
aI9080
aI9173
aI9359
aI9487
aI9657
asS'ATCG'
p218
(lp219
I331
aI764
aI933
aI1067
aI1166
aI1336
aI1741
aI1760
aI1829
aI1941
aI2066
aI2602
aI2625
aI3013
aI3115
aI3634
aI3643
aI3741
aI4230
aI4404
aI4814
aI4981
aI5271
aI5578
aI5849
aI5911
aI6141
aI6450
aI6505
aI7049
aI7323
aI7361
aI7365
aI8114
aI8758
aI8814
aI9262
aI9523
aI9610
aI9631
asS'GCCT'
p220
(lp221
I34
aI334
aI414
aI754
aI906
aI1001
aI1079
aI1119
aI1174
aI1775
aI2200
aI2409
aI2514
aI4292
aI4443
aI4598
aI5438
aI5503
aI5588
aI5599
aI6293
aI6431
aI6496
aI6539
aI6750
aI6910
aI6956
aI7283
aI7339
aI7421
aI7544
aI7610
aI7767
aI7839
aI7916
aI8053
aI8095
aI8284
aI8851
aI8969
aI9016
aI9240
aI9316
aI9440
aI9508
asS'ATCC'
p222
(lp223
I457
aI746
aI997
aI1190
aI1384
aI1490
aI1931
aI1955
aI2121
aI2333
aI2351
aI2665
aI2812
aI3143
aI3162
aI3196
aI3462
aI3757
aI3865
aI3922
aI4032
aI4118
aI4389
aI4467
aI4539
aI4672
aI5002
aI5089
aI5540
aI5694
aI5874
aI5941
aI6258
aI6940
aI7033
aI7175
aI7456
aI7679
aI7749
aI8495
aI8539
aI8609
aI9198
aI9203
aI9560
aI9617
aI9754
asS'TAGC'
p224
(lp225
I46
aI1177
aI1241
aI1437
aI1507
aI2158
aI2843
aI3372
aI3613
aI4244
aI4330
aI4909
aI4989
aI5117
aI5235
aI5586
aI5631
aI5709
aI5731
aI5982
aI6084
aI6279
aI6554
aI6660
aI6693
aI6981
aI7037
aI7161
aI7223
aI7316
aI7613
aI7738
aI7755
aI8138
aI8475
aI8789
aI9109
aI9282
aI9450
aI9705
asS'CAGA'
p226
(lp227
I7
aI64
aI284
aI1273
aI1486
aI2259
aI2431
aI2894
aI2997
aI3126
aI3356
aI3391
aI3899
aI3994
aI4016
aI4320
aI4386
aI4968
aI5960
aI6376
aI6917
aI7005
aI7129
aI8428
aI8459
aI8492
aI8564
aI9367
aI9427
aI9640
aI9708
asS'CCTC'
p228
(lp229
I94
aI260
aI445
aI449
aI635
aI1002
aI1005
aI1092
aI1254
aI2180
aI2353
aI2573
aI3376
aI3409
aI3464
aI3896
aI4086
aI4258
aI4556
aI4599
aI5084
aI5215
aI5508
aI5589
aI5944
aI5950
aI5953
aI6303
aI6462
aI6497
aI6751
aI6911
aI7002
aI7216
aI7657
aI8049
aI8142
aI8499
aI8860
aI9002
aI9008
aI9017
aI9205
aI9424
aI9441
aI9536
aI9619
aI9877
aI9980
asS'CAGC'
p230
(lp231
I97
aI421
aI916
aI987
aI1596
aI1599
aI2096
aI2576
aI2723
aI2846
aI2883
aI3050
aI3138
aI3416
aI3467
aI3712
aI3761
aI3840
aI4208
aI4470
aI4636
aI4663
aI4696
aI4780
aI5179
aI5361
aI5788
aI5886
aI5989
aI6261
aI6349
aI6624
aI8070
aI9463
aI9603
asS'CCGT'
p232
(lp233
I232
aI459
aI920
aI1221
aI1359
aI1820
aI2036
aI2183
aI2336
aI2473
aI2800
aI4224
aI4280
aI4525
aI4666
aI4749
aI5139
aI5239
aI5419
aI5673
aI5696
aI5932
aI6322
aI6535
aI6875
aI7024
aI7177
aI7293
aI7790
aI8507
aI8555
aI8611
aI8892
aI9039
aI9103
aI9144
aI9274
aI9527
aI9702
asS'GGCT'
p234
(lp235
I803
aI1899
aI2442
aI2547
aI2739
aI2828
aI3108
aI3171
aI3234
aI3512
aI3831
aI3985
aI4707
aI6679
aI6969
aI7395
aI8159
aI8291
aI8656
aI9023
aI9121
aI9252
aI9432
aI9598
asS'CCTG'
p236
(lp237
I35
aI183
aI335
aI348
aI749
aI1080
aI1192
aI1410
aI1651
aI1958
aI2042
aI2736
aI2757
aI2817
aI3038
aI3120
aI3382
aI3851
aI3957
aI4071
aI4293
aI4721
aI5013
aI5400
aI5439
aI6272
aI7284
aI7545
aI7768
aI7917
aI8054
aI8339
aI8823
aI8970
aI9092
aI9158
aI9232
aI9562
aI9864
asS'CAGG'
p238
(lp239
I653
aI658
aI663
aI668
aI673
aI678
aI683
aI688
aI693
aI698
aI703
aI708
aI713
aI718
aI723
aI728
aI879
aI1282
aI1392
aI2152
aI2248
aI2486
aI2553
aI2837
aI2888
aI3262
aI4113
aI5303
aI5625
aI5725
aI6041
aI6101
aI6245
aI6406
aI6548
aI7631
aI7932
aI8250
aI8268
aI8305
aI8679
aI9349
aI9575
aI9635
aI9905
aI9970
asS'TGGG'
p240
(lp241
I3
aI26
aI77
aI175
aI185
aI578
aI849
aI1024
aI1423
aI1606
aI2238
aI2649
aI2679
aI3487
aI3553
aI3582
aI3951
aI4059
aI4073
aI4652
aI4710
aI4723
aI5152
aI5286
aI5607
aI5650
aI5777
aI5972
aI6629
aI7207
aI7393
aI7405
aI7447
aI8341
aI9194
aI9250
aI9397
aI9456
aI9749
asS'CTCC'
p242
(lp243
I446
aI636
aI1003
aI1006
aI2131
aI2181
aI2256
aI2798
aI3063
aI3156
aI3377
aI3805
aI3894
aI4013
aI4485
aI4491
aI4523
aI5011
aI5358
aI5417
aI5434
aI5683
aI5715
aI5947
aI5951
aI5954
aI6304
aI6531
aI6702
aI6752
aI7261
aI7622
aI7655
aI7674
aI8047
aI8167
aI8337
aI9009
aI9135
aI9148
aI9943
asS'TGGC'
p244
(lp245
I85
aI586
aI802
aI891
aI1082
aI2313
aI2738
aI2932
aI3107
aI3402
aI3511
aI3735
aI4277
aI5658
aI6001
aI6037
aI6807
aI8290
aI8322
aI8410
aI8504
aI8655
aI9164
aI9571
aI9597
aI9736
aI9784
asS'TGGA'
p246
(lp247
I403
aI468
aI614
aI1362
aI1531
aI1790
aI1814
aI1838
aI2188
aI2296
aI2693
aI2941
aI3007
aI3205
aI3254
aI3325
aI3459
aI3589
aI4955
aI5127
aI5450
aI6071
aI6097
aI6120
aI6328
aI7241
aI7549
aI7568
aI7711
aI7893
aI8355
aI8731
aI8873
aI9564
aI9812
asS'TCGC'
p248
(lp249
I50
aI290
aI332
aI559
aI904
aI965
aI1117
aI1337
aI1830
aI1987
aI2508
aI2518
aI2535
aI2707
aI3543
aI3644
aI3742
aI4588
aI4982
aI5217
aI5272
aI5764
aI5819
aI5993
aI6142
aI6291
aI6451
aI6499
aI6620
aI6748
aI6929
aI7296
aI7324
aI7366
aI7666
aI7929
aI8051
aI8309
aI8558
aI8694
aI8705
aI9524
aI9632
asS'TCGA'
p250
(lp251
I148
aI765
aI1167
aI1541
aI1761
aI2495
aI2626
aI3002
aI3640
aI3857
aI4405
aI4764
aI4815
aI4861
aI5510
aI5890
aI5912
aI6506
aI7050
aI7362
aI8124
aI8313
aI8625
aI8720
aI8846
aI9043
aI9207
aI9410
aI9982
asS'TCGG'
p252
(lp253
I57
aI129
aI298
aI451
aI934
aI1029
aI1042
aI1068
aI1549
aI1742
aI2067
aI2273
aI2742
aI2974
aI4081
aI4088
aI4231
aI4601
aI5483
aI6398
aI6414
aI6738
aI7376
aI7531
aI7575
aI7689
aI7761
aI7858
aI8115
aI8388
aI8646
aI8743
aI8815
aI8895
aI9181
aI9263
aI9611
aI9662
asS'ACCC'
p254
(lp255
I324
aI524
aI544
aI779
aI928
aI947
aI1403
aI1556
aI2093
aI3295
aI3592
aI4069
aI4677
aI4746
aI5070
aI5211
aI5398
aI5703
aI6298
aI6733
aI7187
aI7213
aI7587
aI7794
aI7834
aI8262
aI8807
aI9101
aI9499
aI9580
aI9831
aI9922
asS'TGGT'
p256
(lp257
I295
aI538
aI1061
aI1160
aI1418
aI1462
aI1615
aI1639
aI1663
aI1686
aI1890
aI2002
aI2080
aI2196
aI2437
aI2465
aI2569
aI2916
aI3122
aI3310
aI3427
aI3622
aI3772
aI4023
aI4045
aI4510
aI4528
aI4732
aI4828
aI4890
aI5228
aI5394
aI5402
aI5827
aI5844
aI6034
aI6106
aI6482
aI6523
aI6793
aI6848
aI6978
aI7312
aI7471
aI7490
aI7705
aI8056
aI8110
aI8151
aI8702
aI8839
aI8865
aI8929
aI9773
aI9858
asS'TAGG'
p258
(lp259
I647
aI924
aI1017
aI1216
aI1267
aI1730
aI1772
aI1865
aI1908
aI2135
aI2440
aI2858
aI2949
aI3056
aI3100
aI3169
aI3575
aI3628
aI3844
aI4414
aI4440
aI4531
aI4742
aI4835
aI4930
aI4939
aI4995
aI5050
aI5277
aI5293
aI5458
aI5639
aI5855
aI6198
aI6866
aI6953
aI6987
aI7266
aI7554
aI8363
aI8724
aI9118
aI9341
aI9417
asS'CACA'
p260
(lp261
I419
aI1111
aI1131
aI1440
aI1584
aI1594
aI2173
aI2995
aI3482
aI3608
aI3992
aI4006
aI4661
aI5026
aI5177
aI6714
aI6945
aI7197
aI7219
aI7629
aI8020
aI8145
aI8266
aI9365
aI9976
asS'ACTG'
p262
(lp263
I1
aI499
aI847
aI853
aI1372
aI1478
aI1511
aI2267
aI2461
aI2498
aI2586
aI3082
aI3308
aI3422
aI3569
aI3620
aI3677
aI3902
aI4094
aI4338
aI4372
aI4518
aI4650
aI4953
aI5656
aI5878
aI6337
aI6571
aI6819
aI7310
aI7445
aI8288
aI8349
aI8408
aI8661
aI9270
aI9934
asS'TCGT'
p264
(lp265
I1328
aI1458
aI1504
aI1942
aI2050
aI2140
aI2355
aI2603
aI2929
aI3014
aI3116
aI3249
aI3476
aI3635
aI3889
aI4050
aI4241
aI4793
aI4871
aI5064
aI5337
aI5579
aI5646
aI5824
aI5850
aI6235
aI6325
aI6796
aI6800
aI7540
aI7845
aI8083
aI8162
aI8643
aI8759
aI9258
aI9994
asS'TAGA'
p266
(lp267
I609
aI1064
aI1469
aI1798
aI2005
aI2367
aI2386
aI2563
aI2640
aI3668
aI3703
aI4349
aI4401
aI4613
aI5056
aI5742
aI6066
aI6221
aI6312
aI6436
aI6959
aI7347
aI7592
aI7943
aI8688
aI8771
aI9060
aI9299
aI9807
aI9818
asS'ACAG'
p268
(lp269
I420
aI1281
aI1595
aI2485
aI2552
aI2836
aI2937
aI2996
aI3137
aI3261
aI3345
aI3390
aI3711
aI3785
aI3993
aI4662
aI4760
aI5027
aI5178
aI5815
aI6100
aI6946
aI7630
aI8199
aI8267
aI8427
aI8448
aI8785
aI8938
aI9366
asS'CGGC'
p270
(lp271
I299
aI594
aI1030
aI1183
aI1235
aI1406
aI1898
aI2100
aI2274
aI3595
aI3830
aI3984
aI4453
aI4631
aI4706
aI4845
aI5551
aI6051
aI6415
aI7125
aI7532
aI7576
aI7625
aI8247
aI8561
aI8896
aI9022
aI9482
aI9502
aI9689
aI9792
aI9949
asS'ACAC'
p272
(lp273
I193
aI418
aI542
aI736
aI1211
aI1583
aI2174
aI2449
aI2607
aI2703
aI2994
aI3938
aI4007
aI4092
aI4336
aI4660
aI4964
aI5025
aI5564
aI6509
aI6872
aI7185
aI7198
aI7478
aI7724
aI7871
aI8177
aI9217
aI9766
aI9846
aI9977
asS'CACC'
p274
(lp275
I543
aI597
aI737
aI1212
aI2608
aI3018
aI3294
aI3698
aI3912
aI3939
aI4008
aI4965
aI5156
aI5210
aI5377
aI5565
aI5767
aI6054
aI6301
aI6873
aI7072
aI7152
aI7186
aI7479
aI7788
aI7833
aI8261
aI8832
aI9100
aI9171
aI9795
aI9830
aI9921
aI9978
asS'ACAA'
p276
(lp277
I108
aI1132
aI1354
aI1441
aI1705
aI1883
aI2063
aI2853
aI3072
aI4268
aI4785
aI4810
aI4875
aI5923
aI6249
aI6254
aI6614
aI6715
aI6852
aI7008
aI7132
aI7466
aI7964
aI7968
aI7972
aI7976
aI7980
aI7984
aI7988
aI7992
aI7996
aI8000
aI8004
aI8008
aI8012
aI8484
aI9244
aI9643
aI9927
asS'CTAG'
p278
(lp279
I508
aI646
aI950
aI1176
aI1215
aI1266
aI1719
aI1771
aI2134
aI2857
aI3099
aI3627
aI3843
aI5049
aI5234
aI5292
aI5446
aI5585
aI5708
aI5865
aI5981
aI6197
aI6311
aI6557
aI6659
aI6952
aI6958
aI7036
aI7160
aI7553
aI7612
aI7754
aI7781
aI7806
aI9318
asS'ATCA'
p280
(lp281
I282
aI759
aI914
aI1141
aI1153
aI1271
aI1312
aI1342
aI1747
aI2784
aI3042
aI4318
aI4958
aI5160
aI5208
aI5749
aI5958
aI6115
aI6138
aI6243
aI6347
aI6380
aI6636
aI6915
aI7105
aI7150
aI7786
aI7938
aI8104
aI8520
aI8530
aI8827
aI8830
aI8982
aI9084
aI9968
asS'ACAT'
p282
(lp283
I18
aI142
aI1112
aI1585
aI1824
aI2782
aI3129
aI3483
aI3609
aI3632
aI3729
aI4578
aI4606
aI5124
aI5604
aI5636
aI6024
aI6860
aI7220
aI7306
aI7384
aI7399
aI7435
aI7772
aI7777
aI8021
aI8146
aI8756
aI9185
asS'AAGC'
p284
(lp285
I304
aI425
aI551
aI979
aI1263
aI1356
aI1714
aI2163
aI2558
aI2617
aI2629
aI2720
aI2964
aI3092
aI4290
aI4430
aI4460
aI4593
aI4916
aI5102
aI5297
aI5309
aI5344
aI5473
aI5612
aI5793
aI6429
aI6456
aI6492
aI6699
aI6920
aI7119
aI7332
aI7337
aI7354
aI7440
aI7525
aI7596
aI7765
aI8039
aI8378
aI8523
aI8576
aI8849
aI8884
aI9087
aI9228
aI9362
aI9760
aI9885
asS'CTAC'
p286
(lp287
I416
aI475
aI971
aI1097
aI1279
aI2287
aI2830
aI2992
aI3944
aI4499
aI4675
aI4783
aI4962
aI5317
aI5505
aI5568
aI5634
aI5770
aI6569
aI6594
aI6724
aI6759
aI6971
aI7061
aI7226
aI7341
aI7397
aI7414
aI7443
aI7722
aI7803
aI8044
aI8225
aI8286
aI9005
aI9123
aI9132
aI9242
asS'GGAA'
p288
(lp289
I188
aI453
aI1102
aI1527
aI1552
aI1791
aI2154
aI2189
aI2458
aI2694
aI2791
aI2839
aI2898
aI2951
aI3326
aI3435
aI3585
aI4061
aI4115
aI4136
aI4141
aI4146
aI4151
aI4156
aI4161
aI4166
aI4171
aI4176
aI4181
aI4186
aI4191
aI4196
aI5295
aI5381
aI5460
aI5627
aI5727
aI5779
aI5905
aI5917
aI6126
aI6176
aI6329
aI6550
aI6599
aI6720
aI6834
aI6868
aI7371
aI7378
aI7604
aI7712
aI7763
aI8365
aI8544
aI8732
aI8776
aI8811
aI8878
aI9399
aI9420
asS'AGAA'
p290
(lp291
I65
aI68
aI285
aI1052
aI1487
aI1799
aI1869
aI2006
aI2016
aI2218
aI2387
aI4127
aI4757
aI5743
aI6377
aI6427
aI6918
aI7135
aI7381
aI7593
aI7638
aI8429
aI8565
aI9061
aI9666
aI9698
aI9709
aI9938
asS'ATTT'
p292
(lp293
I13
aI20
aI134
aI156
aI169
aI406
aI574
aI993
aI1114
aI1962
aI2235
aI3440
aI3720
aI4042
aI4544
aI5043
aI5134
aI5595
aI5739
aI6089
aI6383
aI6777
aI7181
aI7252
aI7401
aI7571
aI7828
aI7903
aI8135
aI8195
aI8402
aI8739
aI8985
aI9445
aI9494
aI9991
asS'AGAG'
p294
(lp295
I164
aI471
aI610
aI1229
aI1274
aI1470
aI1568
aI1802
aI2260
aI2368
aI2564
aI2670
aI2763
aI2825
aI2895
aI3669
aI3704
aI3995
aI4321
aI6067
aI6222
aI6313
aI6813
aI6960
aI7112
aI7244
aI7944
aI8689
aI8772
aI8975
aI9300
aI9368
aI9428
aI9808
aI9819
asS'GGAG'
p296
(lp297
I41
aI162
aI245
aI469
aI615
aI642
aI936
aI1363
aI1733
aI1815
aI1839
aI1867
aI1910
aI2070
aI2297
aI2746
aI2890
aI2976
aI3008
aI3178
aI3206
aI3231
aI3271
aI3361
aI3846
aI4233
aI4849
aI5128
aI5485
aI5974
aI6072
aI6610
aI6811
aI7242
aI7691
aI7860
aI7913
aI7954
aI8390
aI8464
aI8745
aI8948
aI8994
aI8997
aI9664
aI9813
asS'CTAA'
p298
(lp299
I528
aI776
aI782
aI1250
aI1851
aI1917
aI1990
aI2059
aI2161
aI2348
aI2411
aI2549
aI2962
aI3021
aI3165
aI3173
aI3499
aI3833
aI3906
aI4505
aI4754
aI4882
aI5471
aI5592
aI5601
aI5734
aI6217
aI6295
aI6782
aI6974
aI7086
aI7330
aI7352
aI7463
aI7510
aI7523
aI7660
aI7924
aI7960
aI8183
aI8293
aI8376
aI8597
aI9840
aI9853
aI9883
aI9914
asS'GGGT'
p300
(lp301
I177
aI579
aI649
aI787
aI1026
aI1304
aI1424
aI1517
aI1607
aI2656
aI2680
aI2768
aI3068
aI3488
aI3665
aI4201
aI4302
aI4724
aI5108
aI5223
aI5279
aI5525
aI5608
aI6165
aI6630
aI6789
aI7020
aI7209
aI7231
aI7238
aI7448
aI8189
aI8342
aI8622
aI8682
aI9032
aI9265
aI9458
aI9515
aI9750
asS'ATTG'
p302
(lp303
I173
aI566
aI584
aI1048
aI1258
aI1345
aI1633
aI1708
aI1845
aI2194
aI2360
aI2581
aI2598
aI2691
aI2911
aI3005
aI3282
aI3323
aI3394
aI3485
aI3502
aI4253
aI4949
aI5267
aI5842
aI6488
aI6879
aI6907
aI7495
aI7566
aI7642
aI7811
aI8119
aI8238
aI8568
aI8633
aI8767
aI8903
aI8910
aI8927
aI9490
aI9567
aI9648
aI9669
aI9856
aI9871
asS'ATTC'
p304
(lp305
I111
aI288
aI862
aI1038
aI1202
aI1675
aI2032
aI2170
aI2306
aI2377
aI2944
aI3560
aI3796
aI4079
aI4767
aI4859
aI5246
aI5453
aI6289
aI6373
aI6394
aI6585
aI7529
aI8023
aI8358
aI8793
aI8844
aI9391
asS'GGAT'
p306
(lp307
I404
aI627
aI991
aI1021
aI1151
aI1269
aI1532
aI1935
aI2689
aI2942
aI2955
aI3058
aI3209
aI3319
aI3460
aI3547
aI3555
aI3577
aI4654
aI4956
aI5169
aI5451
aI5464
aI6839
aI7044
aI7569
aI8117
aI8252
aI8356
aI8369
aI9196
aI9343
aI9565
aI9989
asS'ATTA'
p308
(lp309
I360
aI363
aI1381
aI1589
aI1737
aI1967
aI2384
aI3301
aI3341
aI3611
aI3751
aI4271
aI4438
aI4656
aI4833
aI5202
aI5352
aI5384
aI5746
aI6082
aI6112
aI6841
aI6844
aI6855
aI7056
aI7089
aI7868
aI7941
aI8329
aI8346
aI8424
aI8444
aI8584
aI8924
aI9280
aI9297
aI9387
aI9777
asS'AGAT'
p310
(lp311
I8
aI119
aI1065
aI1735
aI2168
aI2566
aI2641
aI2909
aI3392
aI3448
aI4017
aI4387
aI4402
aI4969
aI5206
aI5513
aI5556
aI5737
aI6437
aI7103
aI8327
aI8493
aI8547
aI8600
aI8917
aI9558
aI9646
aI9733
asS'GCGT'
p312
(lp313
I955
aI1032
aI1237
aI1601
aI1905
aI2102
aI2242
aI2276
aI2315
aI2868
aI2877
aI3454
aI3854
aI4495
aI4927
aI4991
aI5181
aI5274
aI5283
aI5760
aI5821
aI6458
aI6475
aI6654
aI6687
aI6963
aI7192
aI7318
aI7326
aI7559
aI8652
aI9332
aI9414
asS'ACCG'
p314
(lp315
I221
aI231
aI484
aI1087
aI1137
aI1148
aI1220
aI2472
aI2609
aI2788
aI3883
aI3940
aI4009
aI4223
aI5378
aI5430
aI5498
aI5518
aI5672
aI5833
aI6123
aI6161
aI6239
aI6596
aI6874
aI7153
aI7228
aI7789
aI8604
aI8833
aI8891
aI9143
aI9172
aI9358
aI9656
aI9701
asS'TGAT'
p316
(lp317
I102
aI204
aI237
aI582
aI630
aI799
aI816
aI1046
aI1295
aI1350
aI1628
aI1631
aI1701
aI1785
aI1960
aI2229
aI2331
aI2600
aI2663
aI2913
aI3040
aI3104
aI3113
aI3212
aI3749
aI3920
aI4099
aI4537
aI4574
aI5269
aI6371
aI6448
aI6583
aI6897
aI7054
aI7169
aI7907
aI7936
aI8193
aI8422
aI8685
aI8737
aI8825
aI9278
aI9385
aI9492
asS'TTTA'
p318
(lp319
I14
aI21
aI170
aI534
aI827
aI994
aI1378
aI1467
aI1728
aI1757
aI1963
aI2147
aI2281
aI3532
aI3765
aI4326
aI4427
aI4937
aI5111
aI5142
aI5620
aI5720
aI5740
aI5935
aI6091
aI6202
aI6208
aI6434
aI6543
aI6605
aI6691
aI6826
aI6934
aI7076
aI7182
aI7345
aI7358
aI7389
aI7453
aI7728
aI7736
aI7746
aI7852
aI8088
aI8098
aI8136
aI8171
aI8196
aI8782
aI8986
aI9058
aI9107
aI9448
aI9495
asS'TTTC'
p320
(lp321
I127
aI264
aI407
aI435
aI479
aI1115
aI1483
aI1666
aI1927
aI2083
aI2327
aI2533
aI3441
aI3518
aI3789
aI4692
aI4869
aI5062
aI5231
aI5802
aI6168
aI6384
aI6478
aI6513
aI6664
aI7424
aI7428
aI7573
aI8741
aI8964
aI9051
aI9256
aI9992
asS'TTTG'
p322
(lp323
I136
aI157
aI576
aI909
aI1626
aI2236
aI3277
aI3722
aI3770
aI3817
aI3963
aI4043
aI4215
aI4545
aI5044
aI5135
aI5596
aI5928
aI6032
aI6641
aI6778
aI7253
aI7403
aI7474
aI7829
aI7905
aI8077
aI8403
aI9192
aI9437
aI9542
aI9823
asS'CAAG'
p324
(lp325
I303
aI309
aI424
aI1314
aI1355
aI1713
aI1884
aI2166
aI2223
aI2423
aI2668
aI2719
aI3073
aI3599
aI4459
aI4915
aI5021
aI5220
aI5308
aI5312
aI5554
aI5792
aI5924
aI6006
aI6157
aI6250
aI6352
aI6425
aI6995
aI7133
aI7467
aI8038
aI8106
aI8156
aI8522
aI8619
aI9086
aI9222
aI9644
aI9675
aI9696
asS'ACCA'
p326
(lp327
I598
aI738
aI872
aI1428
aI1445
aI1592
aI2150
aI2221
aI2344
aI2429
aI2778
aI2902
aI3048
aI3257
aI3606
aI3717
aI3878
aI3913
aI3967
aI4623
aI4682
aI4966
aI5157
aI5536
aI5623
aI5723
aI5838
aI6055
aI6229
aI6391
aI6546
aI6712
aI7480
aI7699
aI7900
aI8581
aI8677
aI9673
aI9796
asS'GCAG'
p328
(lp329
I6
aI63
aI588
aI822
aI1598
aI2115
aI2722
aI2845
aI2848
aI2893
aI3355
aI3415
aI3839
aI4112
aI4635
aI5302
aI5363
aI5787
aI5885
aI6045
aI6444
aI7408
aI7498
aI7931
aI7947
aI8069
aI8249
aI8304
aI8458
aI8563
aI9047
aI9602
aI9634
aI9639
aI9651
aI9707
aI9786
asS'GCAA'
p330
(lp331
I80
aI308
aI423
aI1057
aI1084
aI1287
aI1339
aI2165
aI2340
aI2422
aI2469
aI2718
aI2934
aI3052
aI3538
aI3714
aI3935
aI4620
aI5219
aI5243
aI5311
aI5321
aI5553
aI5653
aI5663
aI5795
aI6156
aI6188
aI6275
aI6344
aI6351
aI6647
aI6904
aI6994
aI7163
aI7334
aI7534
aI8155
aI8618
aI8630
aI9221
aI9584
aI9605
aI9624
aI9722
aI9738
asS'CAAA'
p332
(lp333
I81
aI114
aI218
aI733
aI761
aI976
aI1288
aI1442
aI1647
aI1670
aI1678
aI2024
aI2110
aI2341
aI2809
aI2822
aI3044
aI3563
aI3782
aI3925
aI4811
aI4876
aI5032
aI5100
aI5322
aI5664
aI6189
aI6255
aI6283
aI6673
aI6716
aI7164
aI7335
aI7431
aI7482
aI7696
aI7816
aI7965
aI7969
aI7973
aI7977
aI7981
aI7985
aI7989
aI7993
aI7997
aI8001
aI8005
aI8009
aI8013
aI8485
aI8532
aI9151
aI9730
aI9739
aI9758
aI9953
asS'TGAG'
p334
(lp335
I273
aI337
aI350
aI492
aI1050
aI1227
aI1454
aI1642
aI1902
aI2014
aI2318
aI2761
aI2958
aI3084
aI3215
aI3451
aI3493
aI3523
aI3775
aI4102
aI4109
aI4283
aI4295
aI4853
aI5036
aI5426
aI5441
aI5467
aI5559
aI5699
aI5967
aI6561
aI7101
aI7636
aI7951
aI8351
aI8372
aI8614
aI9556
aI9588
aI9936
asS'TTTT'
p336
(lp337
I126
aI135
aI433
aI434
aI575
aI826
aI1482
aI1926
aI2146
aI3276
aI3531
aI3721
aI4214
aI4691
aI4867
aI4868
aI4936
aI5061
aI5619
aI5719
aI5801
aI6090
aI6542
aI6604
aI6690
aI6823
aI6824
aI6825
aI6933
aI7402
aI7451
aI7452
aI7572
aI7735
aI7742
aI7743
aI7744
aI7745
aI7904
aI8740
aI8962
aI8963
aI9057
aI9106
aI9255
aI9446
aI9447
aI9540
aI9541
asS'TGAA'
p338
(lp339
I105
aI1921
aI2476
aI3027
aI3134
aI3151
aI3284
aI3679
aI3862
aI4771
aI6109
aI6358
aI6485
aI6490
aI6573
aI6889
aI7109
aI7584
aI7876
aI8027
aI8274
aI8517
aI8574
aI8953
aI8972
aI9289
aI9472
aI9544
aI9680
aI9715
asS'TGAC'
p340
(lp341
I207
aI229
aI313
aI870
aI1123
aI1656
aI1723
aI1881
aI1982
aI2269
aI2427
aI2447
aI2480
aI2542
aI2989
aI3183
aI3965
aI4255
aI4263
aI4520
aI4581
aI4893
aI4923
aI4951
aI5008
aI5534
aI6227
aI6643
aI7476
aI7652
aI7770
aI8240
aI8482
aI8805
aI8889
aI8905
aI9234
aI9376
aI9406
aI9671
aI9686
asS'GCAT'
p342
(lp343
I99
aI292
aI320
aI912
aI1939
aI2371
aI2375
aI2382
aI2725
aI3572
aI3615
aI3725
aI3739
aI4077
aI4332
aI4857
aI4918
aI5000
aI5039
aI5119
aI5858
aI6773
aI6922
aI7527
aI8072
aI8271
aI8412
aI8525
aI8607
aI8791
aI8886
aI9908
asS'CAAT'
p344
(lp345
I109
aI1058
aI1133
aI1143
aI1155
aI1321
aI1340
aI1706
aI2064
aI3053
aI3868
aI3915
aI4269
aI4316
aI4465
aI4670
aI4684
aI4786
aI4825
aI5244
aI5538
aI5796
aI5840
aI6117
aI6276
aI6345
aI6648
aI6853
aI6905
aI7009
aI7029
aI7677
aI8631
aI9245
aI9585
aI9606
aI9625
aI9723
asS'CTGT'
p346
(lp347
I225
aI793
aI854
aI1373
aI1399
aI1479
aI1972
aI2043
aI2301
aI2462
aI2758
aI2818
aI3383
aI3423
aI3653
aI3657
aI3958
aI4028
aI4344
aI4373
aI4559
aI5014
aI5679
aI6667
aI6820
aI6984
aI7546
aI7918
aI8280
aI8662
aI9159
aI9178
aI9336
aI9434
aI9888
aI9893
asS'TCAC'
p348
(lp349
I463
aI1073
aI1094
aI1572
aI1997
aI2172
aI2323
aI2393
aI3017
aI3411
aI3481
aI3697
aI3791
aI3911
aI4396
aI4450
aI4959
aI5161
aI5209
aI5376
aI5582
aI6464
aI6637
aI7145
aI7151
aI7218
aI7787
aI8144
aI8222
aI8594
aI8659
aI8831
aI9019
aI9099
aI9170
aI9268
aI9550
aI9975
asS'TCAT'
p350
(lp351
I199
aI1036
aI1224
aI1256
aI1334
aI1343
aI1929
aI1945
aI2053
aI2204
aI2358
aI2592
aI2946
aI3520
aI3746
aI4260
aI4305
aI4735
aI4806
aI4831
aI4947
aI4986
aI5455
aI5576
aI5872
aI6139
aI6381
aI6386
aI6503
aI6913
aI7106
aI7939
aI8360
aI8795
aI8828
aI8868
aI8983
aI9443
asS'AATT'
p352
(lp353
I12
aI110
aI155
aI287
aI861
aI1707
aI1966
aI2031
aI3501
aI3559
aI4252
aI4270
aI4437
aI5133
aI5245
aI5266
aI5383
aI5594
aI5745
aI5841
aI6111
aI6288
aI6487
aI6854
aI6906
aI7088
aI7251
aI7565
aI7641
aI7867
aI8134
aI8567
aI8632
aI8902
aI9390
aI9668
aI9855
aI9870
asS'CGTT'
p354
(lp355
I124
aI460
aI556
aI921
aI1033
aI1238
aI1329
aI1459
aI2801
aI3815
aI4051
aI4564
aI4992
aI5140
aI5391
aI5647
aI5690
aI5761
aI5808
aI5933
aI6476
aI6688
aI6762
aI6797
aI7025
aI7140
aI7319
aI7560
aI8508
aI9040
aI9104
aI9275
aI9553
asS'TATA'
p356
(lp357
I365
aI367
aI369
aI371
aI373
aI375
aI377
aI379
aI381
aI383
aI857
aI1012
aI1199
aI1834
aI1948
aI2919
aI3370
aI3973
aI4036
aI4227
aI4328
aI4611
aI4740
aI4799
aI5054
aI5408
aI7172
aI8100
aI8207
aI8299
aI8415
aI8473
aI8798
aI8800
aI9339
aI9519
asS'CTAT'
p358
(lp359
I1011
aI1310
aI1833
aI1953
aI2233
aI3110
aI3299
aI3369
aI3972
aI4035
aI4040
aI4610
aI4739
aI4979
aI5087
aI5094
aI5200
aI5251
aI5996
aI6136
aI7417
aI8472
aI8908
aI8922
aI9469
asS'TATC'
p360
(lp361
I758
aI770
aI996
aI1189
aI1311
aI1383
aI1746
aI1759
aI1950
aI1954
aI1969
aI2120
aI2624
aI3012
aI3161
aI3802
aI4031
aI4229
aI4789
aI4980
aI5088
aI5333
aI5676
aI5693
aI5748
aI5910
aI5997
aI6114
aI6137
aI6591
aI6635
aI6939
aI7032
aI7174
aI7322
aI7360
aI7455
aI7619
aI7748
aI7785
aI8113
aI8538
aI9261
aI9609
aI9616
aI9753
aI9911
asS'TCAA'
p362
(lp363
I113
aI481
aI732
aI760
aI975
aI1142
aI1154
aI1313
aI1320
aI1621
aI1677
aI1712
aI1748
aI2023
aI2522
aI2785
aI2821
aI3043
aI3562
aI3708
aI4315
aI4669
aI5020
aI5031
aI5067
aI5190
aI5307
aI6116
aI6424
aI7028
aI7430
aI7815
aI8037
aI8105
aI8521
aI8531
aI9085
aI9729
aI9879
asS'CTGG'
p364
(lp365
I2
aI184
aI848
aI1081
aI1417
aI1614
aI1813
aI1889
aI2187
aI2737
aI3121
aI3309
aI3401
aI3510
aI3621
aI3950
aI4072
aI4651
aI4709
aI4722
aI4954
aI5401
aI5657
aI6000
aI6481
aI6806
aI7311
aI7446
aI7710
aI7892
aI8055
aI8289
aI8321
aI8340
aI8409
aI8872
aI9396
aI9455
aI9563
aI9772
asS'AATG'
p366
(lp367
I70
aI83
aI1059
aI1156
aI1529
aI1854
aI1919
aI2026
aI2112
aI2417
aI2478
aI2647
aI3033
aI3587
aI3860
aI3916
aI4310
aI4508
aI4570
aI4826
aI4888
aI5034
aI5797
aI6118
aI6128
aI6151
aI6784
aI6976
aI8029
aI8735
aI8803
aI9246
aI9475
aI9586
aI9724
asS'CCTA'
p368
(lp369
I415
aI507
aI527
aI781
aI949
aI1010
aI1175
aI1214
aI1850
aI2133
aI2410
aI3020
aI3098
aI3164
aI3298
aI4034
aI4674
aI4881
aI5199
aI5504
aI5567
aI5600
aI5769
aI5980
aI6294
aI6957
aI7035
aI7340
aI7351
aI7413
aI7522
aI7611
aI7753
aI7923
aI8285
aI9241
aI9317
asS'TCAG'
p370
(lp371
I96
aI211
aI283
aI341
aI652
aI657
aI662
aI667
aI672
aI677
aI682
aI687
aI692
aI697
aI702
aI707
aI712
aI717
aI722
aI727
aI866
aI915
aI1272
aI1485
aI2247
aI2575
aI2882
aI2887
aI3125
aI3243
aI3466
aI3898
aI4319
aI4779
aI5750
aI5959
aI5988
aI6244
aI6348
aI6375
aI6916
aI7004
aI7516
aI9307
aI9381
aI9426
aI9462
aI9960
aI9969
asS'TATT'
p372
(lp373
I133
aI168
aI172
aI359
aI362
aI1201
aI1380
aI1588
aI1674
aI1844
aI2193
aI2234
aI2305
aI2597
aI3281
aI3300
aI3322
aI3340
aI3439
aI4041
aI5042
aI5201
aI5351
aI6081
aI6776
aI6843
aI6878
aI7180
aI7494
aI7810
aI7827
aI8345
aI8401
aI8443
aI8766
aI8843
aI8909
aI8923
aI8926
aI9296
aI9776
asS'CGTC'
p374
(lp375
I902
aI1222
aI1547
aI1943
aI1995
aI2021
aI2037
aI2051
aI2141
aI2177
aI2184
aI2277
aI2356
aI2391
aI2526
aI2869
aI3015
aI3117
aI3477
aI3695
aI3855
aI3977
aI4363
aI4496
aI4667
aI4794
aI4900
aI5065
aI5194
aI5420
aI5580
aI5822
aI6269
aI6323
aI6459
aI6618
aI6801
aI7294
aI7327
aI7846
aI8035
aI8556
aI8644
aI8760
aI8893
aI9145
aI9333
aI9379
asS'CTTG'
p376
(lp377
I387
aI1121
aI1293
aI1637
aI1777
aI1858
aI2000
aI2294
aI2311
aI2540
aI2773
aI2872
aI3149
aI3472
aI3551
aI4021
aI4392
aI4445
aI5571
aI5894
aI6369
aI6627
aI6901
aI7099
aI7280
aI7685
aI7874
aI7884
aI8218
aI8502
aI8863
aI9068
aI9126
aI9287
aI9510
asS'CGTA'
p378
(lp379
I233
aI742
aI956
aI1505
aI1821
aI1906
aI2103
aI2604
aI3890
aI4225
aI4242
aI4840
aI4872
aI4928
aI5182
aI5275
aI5674
aI6079
aI6148
aI6183
aI6236
aI6655
aI6876
aI6964
aI7178
aI7201
aI7791
aI8163
aI9259
aI9415
aI9528
aI9703
asS'GTTA'
p380
(lp381
I139
aI179
aI618
aI922
aI1239
aI1435
aI1696
aI1863
aI2118
aI2303
aI2489
aI3191
aI3338
aI3602
aI3659
aI4052
aI4515
aI4565
aI4993
aI5115
aI5341
aI5691
aI5809
aI6075
aI6525
aI7314
aI7320
aI7492
aI7561
aI7645
aI8058
aI8205
aI8441
aI8509
aI8841
aI9478
aI9517
aI9614
aI9816
aI9860
asS'GTTC'
p382
(lp383
I344
aI461
aI557
aI795
aI963
aI1034
aI1071
aI1318
aI1894
aI2048
aI2138
aI2770
aI2805
aI3820
aI3887
aI5574
aI5644
aI5762
aI5868
aI5977
aI6743
aI6763
aI6798
aI7026
aI7141
aI7514
aI7519
aI7707
aI7887
aI7920
aI8590
aI8641
aI9036
aI9041
aI9460
aI9727
aI9973
asS'GTCG'
p384
(lp385
I56
aI297
aI903
aI1028
aI1327
aI1457
aI1548
aI2494
aI2507
aI2973
aI3248
aI3475
aI3639
aI3856
aI4763
aI5482
aI5818
aI5823
aI6324
aI6619
aI6795
aI6928
aI7295
aI7665
aI7688
aI7760
aI8082
aI8308
aI8387
aI8557
aI8624
aI8645
aI8704
aI8894
aI9180
aI9661
asS'GTCA'
p386
(lp387
I340
aI651
aI656
aI661
aI666
aI671
aI676
aI681
aI686
aI691
aI696
aI701
aI706
aI711
aI716
aI721
aI726
aI731
aI1223
aI1333
aI1571
aI1711
aI1944
aI1996
aI2022
aI2052
aI2246
aI2322
aI2357
aI2392
aI2820
aI2881
aI3016
aI3124
aI3696
aI3707
aI4304
aI4395
aI4668
aI4734
aI4830
aI5030
aI5066
aI5189
aI5306
aI5375
aI5581
aI5987
aI6423
aI7814
aI8036
aI8221
aI8867
aI9267
aI9306
aI9380
asS'GTTG'
p388
(lp389
I60
aI227
aI1330
aI1460
aI1661
aI2227
aI2729
aI2802
aI3181
aI3312
aI3425
aI3733
aI3932
aI4355
aI4423
aI5392
aI5532
aI5648
aI5775
aI5970
aI6104
aI6225
aI6791
aI6887
aI7205
aI7634
aI7703
aI8191
aI8420
aI8551
aI8837
aI9276
aI9313
aI9374
aI9554
aI9678
aI9684
aI9713
asS'GTCC'
p390
(lp391
I443
aI505
aI591
aI1162
aI1848
aI1974
aI2038
aI2142
aI2178
aI2527
aI2571
aI2682
aI2732
aI2749
aI2755
aI2924
aI3118
aI3348
aI3779
aI3978
aI4084
aI4203
aI4298
aI4719
aI4901
aI5195
aI5421
aI5753
aI6048
aI6270
aI6460
aI6564
aI6830
aI6999
aI7022
aI7277
aI7411
aI7501
aI7847
aI8451
aI8489
aI8761
aI9000
aI9324
aI9789
aI9963
asS'AACC'
p392
(lp393
I220
aI483
aI778
aI1086
aI1147
aI1252
aI1444
aI1555
aI1649
aI2220
aI2343
aI2471
aI2787
aI2901
aI3047
aI3605
aI3716
aI3877
aI4068
aI4622
aI4879
aI5069
aI5497
aI5517
aI5832
aI6297
aI6390
aI7586
aI7698
aI8778
aI9422
aI9498
aI9700
asS'AACA'
p394
(lp395
I17
aI107
aI735
aI2062
aI2551
aI2781
aI2936
aI3136
aI3260
aI3344
aI3710
aI3784
aI3937
aI4659
aI4759
aI5123
aI5603
aI5922
aI6859
aI6871
aI7305
aI7383
aI7434
aI7465
aI7776
aI7963
aI7967
aI7971
aI7975
aI7979
aI7983
aI7987
aI7991
aI7995
aI7999
aI8003
aI8007
aI8011
aI8447
aI9765
aI9926
asS'CTTA'
p396
(lp397
I251
aI357
aI438
aI756
aI805
aI1208
aI1493
aI1575
aI1766
aI2074
aI2208
aI2452
aI2561
aI2622
aI2638
aI2710
aI3186
aI3236
aI3701
aI3800
aI4121
aI4366
aI4399
aI4797
aI5263
aI5406
aI6755
aI7081
aI7264
aI7486
aI7590
aI7825
aI8062
aI8670
aI8697
aI8764
aI8853
aI9116
aI9294
aI9931
asS'CTTC'
p398
(lp399
I146
aI277
aI622
aI773
aI1414
aI1619
aI1985
aI2202
aI2516
aI2590
aI2795
aI2927
aI3398
aI3947
aI3987
aI4381
aI4586
aI4775
aI4804
aI4821
aI5018
aI6412
aI6681
aI6736
aI6746
aI7538
aI7719
aI7841
aI7856
aI8180
aI8820
aI8957
aI9769
asS'GGGG'
p400
(lp401
I176
aI186
aI243
aI786
aI1019
aI1025
aI2239
aI2650
aI2744
aI3269
aI3433
aI3583
aI4074
aI4416
aI5167
aI5287
aI5524
aI6014
aI6015
aI6016
aI6017
aI6018
aI6164
aI6333
aI6468
aI6469
aI6677
aI6989
aI7019
aI7208
aI7556
aI8188
aI8681
aI9031
aI9457
asS'GGGC'
p402
(lp403
I4
aI27
aI78
aI983
aI1077
aI1232
aI2240
aI2546
aI3076
aI3952
aI4075
aI4417
aI4479
aI4711
aI5153
aI5501
aI5651
aI6019
aI6043
aI6342
aI6400
aI6470
aI6678
aI6990
aI7065
aI7394
aI7406
aI7557
aI8067
aI8093
aI8648
aI9120
aI9251
aI9330
aI9431
aI9637
aI9901
asS'GTTT'
p404
(lp405
I125
aI533
aI825
aI1377
aI1481
aI1665
aI2082
aI3275
aI3769
aI3788
aI3816
aI3962
aI4426
aI4690
aI5110
aI5141
aI5230
aI5800
aI5927
aI5934
aI6167
aI6201
aI6477
aI6603
aI6689
aI6822
aI7450
aI7473
aI8076
aI8087
aI9050
aI9105
aI9191
aI9436
aI9822
asS'GGGA'
p406
(lp407
I187
aI244
aI256
aI850
aI1020
aI1101
aI1551
aI1732
aI2069
aI2457
aI2651
aI2688
aI2745
aI3264
aI3270
aI3434
aI3554
aI3584
aI4060
aI4603
aI4653
aI5168
aI5259
aI5288
aI5778
aI5904
aI5973
aI6175
aI6334
aI6838
aI7370
aI8775
aI9195
aI9398
aI9419
aI9577
asS'CTTT'
p408
(lp409
I263
aI432
aI478
aI908
aI1466
aI1625
aI1727
aI1756
aI1925
aI2145
aI2280
aI2326
aI2532
aI3517
aI3530
aI3764
aI4213
aI4325
aI4866
aI4935
aI5060
aI5618
aI5718
aI6031
aI6207
aI6433
aI6512
aI6541
aI6640
aI6663
aI6932
aI7075
aI7344
aI7357
aI7388
aI7423
aI7427
aI7727
aI7734
aI7741
aI7851
aI8097
aI8170
aI8781
aI8961
aI9056
aI9254
aI9539
asS'ACCT'
p410
(lp411
I93
aI182
aI259
aI634
aI1091
aI1213
aI1253
aI1650
aI1725
aI1754
aI3019
aI3408
aI3699
aI3850
aI4257
aI4379
aI4802
aI4880
aI5083
aI5507
aI5566
aI5768
aI6302
aI6410
aI7073
aI7350
aI8779
aI9007
aI9423
aI9535
aI9863
aI9876
aI9979
asS'TGTT'
p412
(lp413
I138
aI226
aI794
aI1376
aI1480
aI1862
aI1893
aI2302
aI2728
aI2804
aI3424
aI3658
aI3732
aI3819
aI3961
aI4425
aI5340
aI5531
aI5573
aI5643
aI5799
aI6742
aI6821
aI7644
aI7886
aI7919
aI8075
aI8086
aI8550
aI9035
aI9190
aI9435
aI9477
aI9726
asS'AACT'
p414
(lp415
I498
aI1371
aI1477
aI1623
aI1764
aI1769
aI1923
aI2266
aI2460
aI2793
aI2855
aI3081
aI3307
aI3421
aI3528
aI3540
aI3619
aI3908
aI3970
aI4238
aI4649
aI4773
aI4864
aI4944
aI5655
aI6205
aI6309
aI6722
aI7059
aI7079
aI7084
aI7373
aI7484
aI7536
aI7683
aI7732
aI7799
aI7926
aI8276
aI8955
aI9292
aI9547
aI9881
aI9929
asS'GAGT'
p416
(lp417
I165
aI338
aI611
aI616
aI1455
aI1569
aI2671
aI2747
aI3009
aI3085
aI3179
aI3336
aI3362
aI3494
aI3524
aI3705
aI4234
aI4296
aI4421
aI4850
aI5129
aI5413
aI5560
aI5968
aI5975
aI6068
aI6073
aI6223
aI6314
aI6562
aI6885
aI7861
aI8352
aI8439
aI8465
aI8514
aI8998
aI9589
aI9659
aI9809
aI9814
aI9820
asS'GGTA'
p418
(lp419
I44
aI131
aI353
aI495
aI539
aI607
aI835
aI1062
aI1187
aI1366
aI1419
aI1425
aI1608
aI1744
aI1842
aI2003
aI2438
aI2555
aI2657
aI2917
aI2979
aI3069
aI3666
aI4249
aI4286
aI4412
aI4511
aI4529
aI4700
aI4941
aI5052
aI5224
aI5395
aI5488
aI5526
aI5609
aI5828
aI5845
aI6064
aI6849
aI6979
aI7210
aI8111
aI8343
aI8393
aI8536
aI8726
aI8750
aI9751
aI9774
aI9805
asS'GGTG'
p420
(lp421
I75
aI490
aI580
aI814
aI881
aI889
aI1044
aI1284
aI1518
aI1640
aI1687
aI1891
aI2197
aI2466
aI2612
aI2677
aI2860
aI3102
aI3428
aI3623
aI3773
aI4024
aI4057
aI4107
aI4533
aI4725
aI4891
aI5280
aI5326
aI5641
aI6035
aI6107
aI6483
aI6631
aI6740
aI7232
aI7239
aI7274
aI7934
aI8152
aI8683
aI8930
aI8951
aI9033
aI9351
aI9745
asS'AGCA'
p422
(lp423
I98
aI422
aI426
aI552
aI1438
aI1508
aI1597
aI2164
aI2370
aI2721
aI2724
aI2844
aI2847
aI2892
aI3051
aI3614
aI3713
aI4111
aI4331
aI4431
aI4637
aI4917
aI5038
aI5103
aI5118
aI5310
aI5362
aI5794
aI6350
aI6921
aI7162
aI7333
aI7526
aI7597
aI7946
aI8071
aI8524
aI8790
aI8885
aI9046
aI9363
aI9604
aI9706
asS'GGCG'
p424
(lp425
I1031
aI1184
aI1233
aI1236
aI2101
aI2241
aI2275
aI2314
aI3077
aI3403
aI3736
aI4409
aI4418
aI4632
aI4846
aI4997
aI6020
aI6401
aI6808
aI6991
aI7016
aI7066
aI7558
aI7577
aI8323
aI8649
aI9331
aI9483
aI9503
asS'AGCC'
p426
(lp427
I917
aI1357
aI1561
aI1644
aI1817
aI1912
aI2097
aI3221
aI3373
aI3671
aI3810
aI4209
aI4245
aI4291
aI4461
aI4471
aI4594
aI4664
aI4910
aI5236
aI5298
aI5587
aI5613
aI5789
aI6280
aI6430
aI7038
aI7338
aI7693
aI7766
aI7915
aI8139
aI8476
aI8850
aI9088
aI9110
aI9229
aI9283
aI9464
asS'TTGT'
p428
(lp429
I137
aI567
aI1259
aI1331
aI1709
aI1846
aI1859
aI2361
aI2730
aI2774
aI2803
aI2873
aI3278
aI3473
aI3503
aI3818
aI4356
aI4393
aI4424
aI5045
aI5572
aI7643
aI7686
aI7812
aI7885
aI8078
aI8219
aI8569
aI8768
aI8911
aI9568
aI9872
asS'AGCG'
p430
(lp431
I247
aI305
aI980
aI988
aI1178
aI1242
aI1600
aI1904
aI2262
aI2577
aI2618
aI2630
aI2634
aI2765
aI2965
aI3093
aI3139
aI3217
aI3417
aI3453
aI3468
aI3828
aI3997
aI4104
aI4697
aI4990
aI5180
aI5345
aI5474
aI5710
aI5983
aI6085
aI6262
aI6457
aI6493
aI6694
aI6962
aI7114
aI7120
aI7246
aI7317
aI7614
aI7756
aI8040
aI8379
aI8577
aI8747
aI8977
aI9210
aI9302
aI9370
aI9413
aI9761
asS'GAGG'
p432
(lp433
I42
aI317
aI351
aI493
aI937
aI1127
aI1230
aI1364
aI1803
aI1840
aI2319
aI2504
aI2826
aI2896
aI2970
aI2977
aI3207
aI3232
aI3272
aI3776
aI4284
aI4407
aI4854
aI5165
aI5479
aI5486
aI6420
aI6814
aI7272
aI7952
aI7955
aI8384
aI8391
aI8615
aI8627
aI8773
aI8946
aI8949
aI8995
aI9029
aI9429
asS'GAGA'
p434
(lp435
I163
aI470
aI1051
aI1228
aI1275
aI1471
aI1567
aI1734
aI1868
aI2015
aI2217
aI2565
aI2762
aI3847
aI4126
aI5427
aI5442
aI5512
aI5700
aI6265
aI6611
aI6812
aI7102
aI7243
aI7637
aI8326
aI9557
aI9665
aI9937
asS'GGTT'
p436
(lp437
I59
aI178
aI532
aI962
aI1070
aI1317
aI1660
aI1664
aI1695
aI2081
aI2137
aI2226
aI2488
aI2769
aI3274
aI3311
aI3886
aI4354
aI5109
aI5229
aI5774
aI6103
aI6166
aI6200
aI6524
aI6790
aI7313
aI7449
aI7472
aI7491
aI7633
aI7706
aI8057
aI8190
aI8640
aI8836
aI8840
aI9373
aI9459
aI9516
aI9613
aI9859
aI9972
asS'TTGA'
p438
(lp439
I228
aI1049
aI1122
aI1294
aI1627
aI2228
aI2541
aI2599
aI2912
aI3150
aI3182
aI3283
aI3964
aI4254
aI4950
aI5268
aI5533
aI6226
aI6370
aI6489
aI6642
aI6888
aI7100
aI7475
aI7635
aI7875
aI7906
aI8192
aI8239
aI8421
aI8904
aI9277
aI9288
aI9375
aI9491
aI9543
aI9555
aI9670
aI9679
aI9685
aI9714
asS'TTGC'
p440
(lp441
I61
aI158
aI388
aI910
aI1346
aI1634
aI1778
aI2582
aI3313
aI3395
aI3723
aI3933
aI4216
aI4446
aI4546
aI5136
aI5597
aI5895
aI5929
aI6779
aI6880
aI6902
aI6908
aI7254
aI7281
aI7496
aI7830
aI8120
aI8404
aI8552
aI8634
aI9069
aI9127
aI9314
aI9438
aI9511
aI9649
aI9824
asS'AGCT'
p442
(lp443
I47
aI275
aI473
aI644
aI1264
aI1715
aI2072
aI2159
aI2299
aI2559
aI2884
aI2960
aI3762
aI3841
aI4323
aI4781
aI5469
aI5632
aI5732
aI5887
aI5990
aI6555
aI6625
aI6661
aI6700
aI6982
aI7224
aI7355
aI7441
aI7739
aI8216
aI8374
aI8691
aI9451
aI9851
aI9886
asS'TTGG'
p444
(lp445
I174
aI577
aI585
aI1461
aI1638
aI1662
aI2001
aI2195
aI2237
aI2295
aI2312
aI2692
aI3006
aI3324
aI3426
aI3486
aI3552
aI3734
aI3771
aI4022
aI4044
aI5393
aI5649
aI5776
aI5843
aI5971
aI6033
aI6105
aI6628
aI6792
aI7206
aI7404
aI7567
aI7704
aI8503
aI8838
aI8864
aI8928
aI9193
aI9857
asS'CCCA'
p446
(lp447
I563
aI897
aI1109
aI2094
aI3292
aI3759
aI3990
aI4206
aI4384
aI4457
aI4463
aI4541
aI4549
aI4913
aI5072
aI5755
aI6004
aI6299
aI6517
aI6943
aI7070
aI8264
aI8708
aI9200
aI9694
aI9756
aI9828
aI9923
aI9965
asS'ATGC'
p448
(lp449
I71
aI239
aI412
aI820
aI875
aI1299
aI1855
aI1937
aI2113
aI2373
aI2418
aI3034
aI3060
aI3239
aI4311
aI4552
aI4626
aI4703
aI4818
aI5096
aI5173
aI6028
aI6129
aI6785
aI7096
aI7419
aI7460
aI7648
aI7909
aI8030
aI8254
aI9345
asS'ATGA'
p450
(lp451
I101
aI104
aI203
aI206
aI236
aI272
aI629
aI1226
aI1630
aI1784
aI1920
aI2479
aI2957
aI2988
aI3112
aI3211
aI3214
aI3450
aI3522
aI3748
aI3861
aI4101
aI4262
aI4580
aI4922
aI5007
aI5035
aI5425
aI5466
aI5558
aI7053
aI7108
aI7583
aI8273
aI8371
aI8736
aI8804
aI8888
aI9471
aI9587
asS'ATGG'
p452
(lp453
I84
aI294
aI537
aI801
aI1023
aI1060
aI1422
aI1530
aI1837
aI2568
aI2648
aI2915
aI3106
aI3581
aI3588
aI4509
aI4827
aI4889
aI5126
aI5227
aI5606
aI6119
aI6847
aI6977
aI7392
aI7489
aI9596
aI9735
asS'GTCT'
p454
(lp455
I789
aI1306
aI1395
aI1464
aI1538
aI1617
aI1887
aI1979
aI2057
aI2185
aI2278
aI2292
aI2870
aI3478
aI3490
aI3651
aI3655
aI4047
aI4364
aI4497
aI4795
aI4933
aI5016
aI5047
aI5404
aI5415
aI5681
aI5863
aI6802
aI7328
aI7506
aI7958
aI8668
aI8818
aI9066
aI9146
aI9334
aI9957
asS'GGTC'
p456
(lp457
I296
aI504
aI650
aI655
aI660
aI665
aI670
aI675
aI680
aI685
aI690
aI695
aI700
aI705
aI710
aI715
aI720
aI725
aI730
aI788
aI1027
aI1161
aI1305
aI1394
aI1463
aI1616
aI2291
aI2321
aI2506
aI2570
aI2681
aI2972
aI3123
aI3489
aI3650
aI3778
aI4046
aI4083
aI4202
aI4303
aI4718
aI4733
aI4829
aI4932
aI5305
aI5374
aI5403
aI5481
aI5986
aI6422
aI6794
aI6998
aI7021
aI7505
aI7759
aI7957
aI8307
aI8386
aI8623
aI8703
aI8817
aI8866
aI9266
aI9305
asS'GCGC'
p458
(lp459
I248
aI306
aI752
aI1179
aI1243
aI1690
aI2420
aI2619
aI2635
aI2966
aI3094
aI3469
aI3737
aI4341
aI4633
aI4998
aI5475
aI5881
aI5883
aI6131
aI6402
aI6494
aI6769
aI6771
aI6992
aI7067
aI7578
aI8041
aI8380
aI8650
aI9484
aI9504
aI9506
aI9835
aI9837
asS'CAAC'
p460
(lp461
I482
aI600
aI899
aI1085
aI1622
aI1749
aI2470
aI2523
aI2780
aI2786
aI2854
aI2935
aI3259
aI3539
aI3709
aI3715
aI3936
aI3969
aI4621
aI5068
aI5191
aI5654
aI6057
aI6615
aI7535
aI7682
aI9798
aI9880
aI9925
aI9928
aI9946
asS'GCGA'
p462
(lp463
I328
aI571
aI884
aI2125
aI2263
aI2578
aI2631
aI2968
aI3078
aI3140
aI3218
aI3331
aI3418
aI3998
aI4419
aI4590
aI4645
aI5346
aI5477
aI5711
aI6021
aI6086
aI6144
aI6263
aI6453
aI6695
aI7115
aI7121
aI7247
aI7298
aI7615
aI8129
aI8213
aI8324
aI8382
aI8434
aI8578
aI8935
aI8978
aI9027
aI9211
aI9762
aI9867
asS'GCGG'
p464
(lp465
I73
aI160
aI241
aI502
aI981
aI989
aI1185
aI1234
aI2675
aI2686
aI2766
aI3404
aI3431
aI3545
aI3829
aI4105
aI4410
aI4698
aI4705
aI4847
aI5984
aI6173
aI6340
aI6787
aI6809
aI7017
aI7368
aI7602
aI7757
aI7911
aI8246
aI8560
aI8748
aI9139
aI9303
aI9371
aI9513
asS'CCCC'
p466
(lp467
I88
aI525
aI562
aI1008
aI1563
aI2040
aI2734
aI2814
aI2815
aI3291
aI3296
aI3379
aI3380
aI3823
aI3955
aI4205
aI4456
aI4747
aI4912
aI5071
aI5078
aI5197
aI5212
aI5213
aI5615
aI6516
aI6533
aI6942
aI7188
aI7214
aI7288
aI7751
aI7835
aI8263
aI8497
aI9011
aI9012
aI9090
aI9692
aI9693
aI9827
asS'TGCC'
p468
(lp469
I37
aI215
aI389
aI413
aI840
aI876
aI1107
aI1173
aI1194
aI1300
aI1498
aI1513
aI1779
aI2087
aI2199
aI2500
aI2862
aI3035
aI4547
aI4553
aI4627
aI5097
aI5137
aI5174
aI5328
aI5598
aI5899
aI5930
aI6010
aI6317
aI6538
aI6670
aI6881
aI6909
aI7234
aI7282
aI7286
aI7420
aI7543
aI7609
aI8255
aI8283
aI8553
aI8942
aI8968
aI9239
aI9272
aI9315
aI9346
aI9439
aI9825
asS'CACG'
p470
(lp471
I31
aI194
aI464
aI554
aI639
aI740
aI1074
aI1387
aI2175
aI2394
aI2865
aI3316
aI3412
aI3647
aI3792
aI3813
aI4219
aI4361
aI4433
aI4451
aI4639
aI4715
aI4898
aI5074
aI5105
aI5162
aI5757
aI5806
aI6365
aI6465
aI6708
aI6729
aI7041
aI7146
aI7199
aI7599
aI8033
aI8637
aI9020
aI9075
aI9218
aI9327
aI9551
aI9847
asS'TGCA'
p472
(lp473
I62
aI821
aI911
aI1286
aI1938
aI2114
aI2339
aI2374
aI2468
aI2583
aI2717
aI3314
aI3537
aI3571
aI3724
aI3934
aI4217
aI4359
aI4619
aI4975
aI5242
aI5786
aI6155
aI6274
aI6363
aI6443
aI6903
aI7195
aI7497
aI7831
aI8031
aI8154
aI8405
aI8635
aI8715
aI9073
aI9094
aI9601
aI9623
aI9650
aI9721
aI9919
asS'CCCG'
p474
(lp475
I89
aI325
aI545
aI919
aI929
aI1404
aI1557
aI1564
aI1819
aI2035
aI2089
aI2335
aI2511
aI3065
aI3593
aI3685
aI3824
aI4476
aI4487
aI4629
aI4678
aI4748
aI5079
aI5238
aI5704
aI5901
aI6534
aI6684
aI6766
aI7189
aI7289
aI7795
aI7836
aI8541
aI8808
aI9013
aI9079
aI9102
aI9112
aI9500
aI9581
aI9832
asS'TGCG'
p476
(lp477
I72
aI159
aI240
aI501
aI570
aI751
aI883
aI954
aI1689
aI2419
aI2674
aI2876
aI3430
aI3853
aI4340
aI4704
aI5282
aI5880
aI6130
aI6339
aI6786
aI7910
aI8212
aI8245
aI8934
aI9026
aI9512
aI9866
asS'ATGT'
p478
(lp479
I441
aI1157
aI1170
aI1325
aI1787
aI2027
aI2055
aI2594
aI2727
aI2753
aI3731
aI3917
aI4274
aI4571
aI5253
aI5798
aI6094
aI6152
aI6520
aI6580
aI6926
aI8074
aI8148
aI8549
aI9189
aI9247
aI9476
aI9725
asS'TACA'
p480
(lp481
I141
aI417
aI541
aI1210
aI1280
aI1353
aI1704
aI1823
aI2606
aI2852
aI2993
aI3071
aI3389
aI3728
aI4335
aI4577
aI4784
aI4809
aI4874
aI4963
aI5563
aI5635
aI5814
aI6851
aI7184
aI7398
aI7723
aI7870
aI8198
aI8426
aI8755
aI8784
aI9243
asS'TACC'
p482
(lp483
I181
aI323
aI633
aI1136
aI1402
aI1427
aI1591
aI2149
aI2777
aI3882
aI4378
aI4676
aI4801
aI5397
aI5506
aI5622
aI5671
aI5722
aI6238
aI6545
aI6595
aI7212
aI7227
aI7793
aI8603
aI9006
aI9357
aI9655
aI9862
aI9875
asS'TACG'
p484
(lp485
I122
aI399
aI512
aI517
aI832
aI1098
aI1524
aI1545
aI1610
aI2076
aI2105
aI2283
aI2288
aI2406
aI2454
aI2659
aI2831
aI3753
aI3975
aI4123
aI4500
aI4562
aI5318
aI5389
aI5410
aI5549
aI5688
aI5771
aI5937
aI6077
aI6181
aI6185
aI6607
aI6651
aI6725
aI6760
aI7062
aI8226
aI8301
aI8511
aI8855
aI8991
aI9480
asS'CATA'
p486
(lp487
I200
aI321
aI1197
aI1447
aI1586
aI1825
aI1946
aI2904
aI2947
aI3159
aI3199
aI3573
aI3616
aI3726
aI3880
aI4306
aI4333
aI4807
aI4904
aI4919
aI4987
aI5040
aI5120
aI5331
aI5456
aI5637
aI5686
aI5859
aI6025
aI6387
aI6589
aI6774
aI6861
aI6923
aI7221
aI7307
aI7436
aI7670
aI7773
aI8361
aI8413
aI8526
aI8710
aI8796
aI9186
aI9909
asS'CATC'
p488
(lp489
I143
aI281
aI913
aI1165
aI1335
aI1930
aI1940
aI2205
aI2783
aI3130
aI3146
aI3633
aI3740
aI4607
aI4736
aI5001
aI5159
aI5577
aI5873
aI5957
aI6140
aI6231
aI6504
aI6914
aI7385
aI7778
aI8608
aI8757
aI8829
aI8869
aI9202
aI9967
asS'CATG'
p490
(lp491
I100
aI271
aI293
aI411
aI874
aI1225
aI2054
aI2372
aI2593
aI2726
aI2752
aI3521
aI3730
aI3747
aI4261
aI4551
aI4579
aI4625
aI5125
aI5424
aI5605
aI6519
aI7107
aI7459
aI7582
aI8073
aI8147
aI8272
aI8887
asS'TCCT'
p492
(lp493
I444
aI506
aI1004
aI1191
aI1491
aI1849
aI2132
aI2143
aI2179
aI2352
aI2572
aI2756
aI2925
aI3119
aI3163
aI3463
aI3798
aI3895
aI4033
aI4085
aI4119
aI4390
aI4673
aI4720
aI5012
aI5716
aI5952
aI5979
aI6271
aI6461
aI6753
aI7034
aI7262
aI7278
aI7412
aI7521
aI7656
aI7922
aI8048
aI8168
aI8338
aI8762
aI8822
aI8959
aI9001
aI9204
aI9561
aI9618
asS'CGCT'
p494
(lp495
I196
aI223
aI249
aI1501
aI1612
aI1831
aI1915
aI1988
aI2285
aI2519
aI2536
aI2620
aI2636
aI2708
aI3470
aI3743
aI3942
aI4011
aI4342
aI4483
aI4489
aI4584
aI4983
aI5092
aI5432
aI5706
aI5994
aI6132
aI6367
aI6500
aI6930
aI8042
aI8310
aI8479
aI8695
aI9114
aI9467
aI9838
asS'CCTT'
p496
(lp497
I755
aI907
aI1120
aI1492
aI1726
aI1755
aI1776
aI2144
aI2201
aI2515
aI2926
aI3700
aI3799
aI4120
aI4212
aI4380
aI4391
aI4444
aI4803
aI5617
aI5717
aI6411
aI6432
aI6540
aI6735
aI6754
aI7074
aI7263
aI7279
aI7422
aI7589
aI7840
aI7850
aI7883
aI8096
aI8169
aI8763
aI8780
aI8852
aI8960
aI9055
aI9286
aI9509
asS'ACTT'
p498
(lp499
I356
aI386
aI477
aI621
aI1574
aI1624
aI1765
aI1924
aI1984
aI1999
aI2325
aI2451
aI2531
aI2794
aI3185
aI3529
aI3946
aI4398
aI4774
aI4865
aI5059
aI5262
aI5570
aI5893
aI6206
aI6511
aI6639
aI7080
aI7343
aI7485
aI7537
aI7684
aI7718
aI7726
aI7733
aI7824
aI7855
aI7873
aI8061
aI8179
aI8956
aI9125
aI9293
aI9768
aI9930
asS'CATT'
p500
(lp501
I19
aI565
aI1037
aI1113
aI1257
aI1344
aI2359
aI2376
aI2383
aI3484
aI3610
aI3719
aI4078
aI4543
aI4832
aI4858
aI4948
aI6382
aI6393
aI7400
aI7528
aI7902
aI7940
aI8022
aI8237
aI8583
aI8792
aI8984
aI9444
asS'CTGA'
p502
(lp503
I336
aI349
aI798
aI1349
aI1655
aI1880
aI1901
aI1959
aI1981
aI2013
aI2268
aI2330
aI2446
aI3039
aI3083
aI3133
aI3492
aI3678
aI4098
aI4294
aI4519
aI4770
aI5440
aI5966
aI6572
aI6896
aI7651
aI7769
aI8026
aI8350
aI8481
aI8824
aI8971
aI9233
aI9935
asS'CGCG'
p504
(lp505
I327
aI2124
aI2685
aI2867
aI2967
aI3330
aI3544
aI4494
aI4589
aI4644
aI4926
aI5273
aI5476
aI5759
aI5820
aI5882
aI6143
aI6172
aI6452
aI6474
aI6653
aI6686
aI6768
aI6770
aI7191
aI7297
aI7325
aI7367
aI7601
aI8128
aI8381
aI8433
aI8559
aI8651
aI9138
aI9505
aI9834
aI9836
asS'TCCG'
p506
(lp507
I266
aI458
aI592
aI624
aI998
aI1896
aI1932
aI2122
aI2182
aI2379
aI2683
aI2799
aI3349
aI3443
aI3806
aI3979
aI4299
aI4492
aI4524
aI5003
aI5090
aI5418
aI5435
aI5541
aI5695
aI6049
aI6170
aI6305
aI6703
aI6831
aI7023
aI7176
aI7502
aI7623
aI8452
aI8610
aI9038
aI9136
aI9790
asS'CGCC'
p508
(lp509
I33
aI51
aI268
aI333
aI486
aI560
aI603
aI753
aI895
aI905
aI942
aI966
aI1000
aI1118
aI1180
aI1389
aI1691
aI2107
aI2396
aI2408
aI2509
aI2513
aI3095
aI4474
aI4597
aI4641
aI5076
aI5437
aI5520
aI5543
aI6060
aI6292
aI6320
aI6403
aI6495
aI6621
aI6705
aI6749
aI7068
aI7291
aI7579
aI7667
aI7838
aI8017
aI8052
aI8234
aI8258
aI8706
aI8857
aI9015
aI9077
aI9485
aI9507
aI9525
aI9801
asS'TCCC'
p510
(lp511
I346
aI447
aI747
aI1007
aI1956
aI2034
aI2039
aI2334
aI2733
aI2813
aI3064
aI3378
aI3758
aI3822
aI3989
aI4204
aI4383
aI4486
aI4540
aI5196
aI5754
aI5942
aI5948
aI6515
aI6532
aI6683
aI6765
aI6941
aI7000
aI7750
aI7848
aI8496
aI8540
aI9010
aI9053
aI9199
aI9755
aI9964
asS'CGCA'
p512
(lp513
I291
aI307
aI1244
aI1338
aI2381
aI2421
aI3354
aI3414
aI3645
aI3674
aI3738
aI3838
aI4004
aI4634
aI4896
aI4999
aI5218
aI5301
aI5320
aI5662
aI5765
aI5884
aI6187
aI6646
aI6727
aI6772
aI6993
aI7930
aI8303
aI8457
aI8606
aI9220
aI9583
aI9633
asS'TCCA'
p514
(lp515
I279
aI409
aI637
aI1163
aI1385
aI1668
aI1975
aI2257
aI2528
aI2666
aI2750
aI2807
aI3144
aI3157
aI3197
aI3780
aI3866
aI3923
aI4014
aI4468
aI4694
aI4823
aI4902
aI5359
aI5422
aI5684
aI5804
aI5875
aI5955
aI6259
aI6565
aI6587
aI7457
aI7675
aI7680
aI8490
aI9149
aI9325
aI9944
as.